
STM32F4_Robo.elf:     file format elf32-littlearm

Sections:
Idx Name          Size      VMA       LMA       File off  Algn
  0 .isr_vector   00000188  08000000  08000000  00010000  2**0
                  CONTENTS, ALLOC, LOAD, READONLY, DATA
  1 .text         00008f64  08000188  08000188  00010188  2**2
                  CONTENTS, ALLOC, LOAD, READONLY, CODE
  2 .ARM          00000008  080090ec  080090ec  000190ec  2**2
                  CONTENTS, ALLOC, LOAD, READONLY, DATA
  3 .init_array   00000004  080090f4  080090f4  000190f4  2**2
                  CONTENTS, ALLOC, LOAD, DATA
  4 .fini_array   00000004  080090f8  080090f8  000190f8  2**2
                  CONTENTS, ALLOC, LOAD, DATA
  5 .data         00000024  20000000  080090fc  00020000  2**2
                  CONTENTS, ALLOC, LOAD, DATA
  6 .bss          00000564  20000024  08009120  00020024  2**2
                  ALLOC
  7 ._user_heap_stack 00000400  20000588  08009684  00020024  2**0
                  ALLOC
  8 .ARM.attributes 00000030  00000000  00000000  00020024  2**0
                  CONTENTS, READONLY
  9 .debug_info   00013b58  00000000  00000000  00020054  2**0
                  CONTENTS, READONLY, DEBUGGING
 10 .debug_abbrev 00002494  00000000  00000000  00033bac  2**0
                  CONTENTS, READONLY, DEBUGGING
 11 .debug_aranges 00000e18  00000000  00000000  00036040  2**3
                  CONTENTS, READONLY, DEBUGGING
 12 .debug_ranges 00000d20  00000000  00000000  00036e58  2**3
                  CONTENTS, READONLY, DEBUGGING
 13 .debug_macro  00004b33  00000000  00000000  00037b78  2**0
                  CONTENTS, READONLY, DEBUGGING
 14 .debug_line   0000f4f0  00000000  00000000  0003c6ab  2**0
                  CONTENTS, READONLY, DEBUGGING
 15 .debug_str    000e6420  00000000  00000000  0004bb9b  2**0
                  CONTENTS, READONLY, DEBUGGING
 16 .comment      0000007b  00000000  00000000  00131fbb  2**0
                  CONTENTS, READONLY
 17 .debug_frame  00003bb8  00000000  00000000  00132038  2**2
                  CONTENTS, READONLY, DEBUGGING

Disassembly of section .text:

08000188 <__do_global_dtors_aux>:
 8000188:	b510      	push	{r4, lr}
 800018a:	4c05      	ldr	r4, [pc, #20]	; (80001a0 <__do_global_dtors_aux+0x18>)
 800018c:	7823      	ldrb	r3, [r4, #0]
 800018e:	b933      	cbnz	r3, 800019e <__do_global_dtors_aux+0x16>
 8000190:	4b04      	ldr	r3, [pc, #16]	; (80001a4 <__do_global_dtors_aux+0x1c>)
 8000192:	b113      	cbz	r3, 800019a <__do_global_dtors_aux+0x12>
 8000194:	4804      	ldr	r0, [pc, #16]	; (80001a8 <__do_global_dtors_aux+0x20>)
 8000196:	f3af 8000 	nop.w
 800019a:	2301      	movs	r3, #1
 800019c:	7023      	strb	r3, [r4, #0]
 800019e:	bd10      	pop	{r4, pc}
 80001a0:	20000024 	.word	0x20000024
 80001a4:	00000000 	.word	0x00000000
 80001a8:	080090d4 	.word	0x080090d4

080001ac <frame_dummy>:
 80001ac:	b508      	push	{r3, lr}
 80001ae:	4b03      	ldr	r3, [pc, #12]	; (80001bc <frame_dummy+0x10>)
 80001b0:	b11b      	cbz	r3, 80001ba <frame_dummy+0xe>
 80001b2:	4903      	ldr	r1, [pc, #12]	; (80001c0 <frame_dummy+0x14>)
 80001b4:	4803      	ldr	r0, [pc, #12]	; (80001c4 <frame_dummy+0x18>)
 80001b6:	f3af 8000 	nop.w
 80001ba:	bd08      	pop	{r3, pc}
 80001bc:	00000000 	.word	0x00000000
 80001c0:	20000028 	.word	0x20000028
 80001c4:	080090d4 	.word	0x080090d4

080001c8 <strlen>:
 80001c8:	4603      	mov	r3, r0
 80001ca:	f813 2b01 	ldrb.w	r2, [r3], #1
 80001ce:	2a00      	cmp	r2, #0
 80001d0:	d1fb      	bne.n	80001ca <strlen+0x2>
 80001d2:	1a18      	subs	r0, r3, r0
 80001d4:	3801      	subs	r0, #1
 80001d6:	4770      	bx	lr

080001d8 <__aeabi_uldivmod>:
 80001d8:	b953      	cbnz	r3, 80001f0 <__aeabi_uldivmod+0x18>
 80001da:	b94a      	cbnz	r2, 80001f0 <__aeabi_uldivmod+0x18>
 80001dc:	2900      	cmp	r1, #0
 80001de:	bf08      	it	eq
 80001e0:	2800      	cmpeq	r0, #0
 80001e2:	bf1c      	itt	ne
 80001e4:	f04f 31ff 	movne.w	r1, #4294967295
 80001e8:	f04f 30ff 	movne.w	r0, #4294967295
 80001ec:	f000 b972 	b.w	80004d4 <__aeabi_idiv0>
 80001f0:	f1ad 0c08 	sub.w	ip, sp, #8
 80001f4:	e96d ce04 	strd	ip, lr, [sp, #-16]!
 80001f8:	f000 f806 	bl	8000208 <__udivmoddi4>
 80001fc:	f8dd e004 	ldr.w	lr, [sp, #4]
 8000200:	e9dd 2302 	ldrd	r2, r3, [sp, #8]
 8000204:	b004      	add	sp, #16
 8000206:	4770      	bx	lr

08000208 <__udivmoddi4>:
 8000208:	e92d 47f0 	stmdb	sp!, {r4, r5, r6, r7, r8, r9, sl, lr}
 800020c:	9e08      	ldr	r6, [sp, #32]
 800020e:	4604      	mov	r4, r0
 8000210:	4688      	mov	r8, r1
 8000212:	2b00      	cmp	r3, #0
 8000214:	d14b      	bne.n	80002ae <__udivmoddi4+0xa6>
 8000216:	428a      	cmp	r2, r1
 8000218:	4615      	mov	r5, r2
 800021a:	d967      	bls.n	80002ec <__udivmoddi4+0xe4>
 800021c:	fab2 f282 	clz	r2, r2
 8000220:	b14a      	cbz	r2, 8000236 <__udivmoddi4+0x2e>
 8000222:	f1c2 0720 	rsb	r7, r2, #32
 8000226:	fa01 f302 	lsl.w	r3, r1, r2
 800022a:	fa20 f707 	lsr.w	r7, r0, r7
 800022e:	4095      	lsls	r5, r2
 8000230:	ea47 0803 	orr.w	r8, r7, r3
 8000234:	4094      	lsls	r4, r2
 8000236:	ea4f 4e15 	mov.w	lr, r5, lsr #16
 800023a:	0c23      	lsrs	r3, r4, #16
 800023c:	fbb8 f7fe 	udiv	r7, r8, lr
 8000240:	fa1f fc85 	uxth.w	ip, r5
 8000244:	fb0e 8817 	mls	r8, lr, r7, r8
 8000248:	ea43 4308 	orr.w	r3, r3, r8, lsl #16
 800024c:	fb07 f10c 	mul.w	r1, r7, ip
 8000250:	4299      	cmp	r1, r3
 8000252:	d909      	bls.n	8000268 <__udivmoddi4+0x60>
 8000254:	18eb      	adds	r3, r5, r3
 8000256:	f107 30ff 	add.w	r0, r7, #4294967295
 800025a:	f080 811b 	bcs.w	8000494 <__udivmoddi4+0x28c>
 800025e:	4299      	cmp	r1, r3
 8000260:	f240 8118 	bls.w	8000494 <__udivmoddi4+0x28c>
 8000264:	3f02      	subs	r7, #2
 8000266:	442b      	add	r3, r5
 8000268:	1a5b      	subs	r3, r3, r1
 800026a:	b2a4      	uxth	r4, r4
 800026c:	fbb3 f0fe 	udiv	r0, r3, lr
 8000270:	fb0e 3310 	mls	r3, lr, r0, r3
 8000274:	ea44 4403 	orr.w	r4, r4, r3, lsl #16
 8000278:	fb00 fc0c 	mul.w	ip, r0, ip
 800027c:	45a4      	cmp	ip, r4
 800027e:	d909      	bls.n	8000294 <__udivmoddi4+0x8c>
 8000280:	192c      	adds	r4, r5, r4
 8000282:	f100 33ff 	add.w	r3, r0, #4294967295
 8000286:	f080 8107 	bcs.w	8000498 <__udivmoddi4+0x290>
 800028a:	45a4      	cmp	ip, r4
 800028c:	f240 8104 	bls.w	8000498 <__udivmoddi4+0x290>
 8000290:	3802      	subs	r0, #2
 8000292:	442c      	add	r4, r5
 8000294:	ea40 4007 	orr.w	r0, r0, r7, lsl #16
 8000298:	eba4 040c 	sub.w	r4, r4, ip
 800029c:	2700      	movs	r7, #0
 800029e:	b11e      	cbz	r6, 80002a8 <__udivmoddi4+0xa0>
 80002a0:	40d4      	lsrs	r4, r2
 80002a2:	2300      	movs	r3, #0
 80002a4:	e9c6 4300 	strd	r4, r3, [r6]
 80002a8:	4639      	mov	r1, r7
 80002aa:	e8bd 87f0 	ldmia.w	sp!, {r4, r5, r6, r7, r8, r9, sl, pc}
 80002ae:	428b      	cmp	r3, r1
 80002b0:	d909      	bls.n	80002c6 <__udivmoddi4+0xbe>
 80002b2:	2e00      	cmp	r6, #0
 80002b4:	f000 80eb 	beq.w	800048e <__udivmoddi4+0x286>
 80002b8:	2700      	movs	r7, #0
 80002ba:	e9c6 0100 	strd	r0, r1, [r6]
 80002be:	4638      	mov	r0, r7
 80002c0:	4639      	mov	r1, r7
 80002c2:	e8bd 87f0 	ldmia.w	sp!, {r4, r5, r6, r7, r8, r9, sl, pc}
 80002c6:	fab3 f783 	clz	r7, r3
 80002ca:	2f00      	cmp	r7, #0
 80002cc:	d147      	bne.n	800035e <__udivmoddi4+0x156>
 80002ce:	428b      	cmp	r3, r1
 80002d0:	d302      	bcc.n	80002d8 <__udivmoddi4+0xd0>
 80002d2:	4282      	cmp	r2, r0
 80002d4:	f200 80fa 	bhi.w	80004cc <__udivmoddi4+0x2c4>
 80002d8:	1a84      	subs	r4, r0, r2
 80002da:	eb61 0303 	sbc.w	r3, r1, r3
 80002de:	2001      	movs	r0, #1
 80002e0:	4698      	mov	r8, r3
 80002e2:	2e00      	cmp	r6, #0
 80002e4:	d0e0      	beq.n	80002a8 <__udivmoddi4+0xa0>
 80002e6:	e9c6 4800 	strd	r4, r8, [r6]
 80002ea:	e7dd      	b.n	80002a8 <__udivmoddi4+0xa0>
 80002ec:	b902      	cbnz	r2, 80002f0 <__udivmoddi4+0xe8>
 80002ee:	deff      	udf	#255	; 0xff
 80002f0:	fab2 f282 	clz	r2, r2
 80002f4:	2a00      	cmp	r2, #0
 80002f6:	f040 808f 	bne.w	8000418 <__udivmoddi4+0x210>
 80002fa:	1b49      	subs	r1, r1, r5
 80002fc:	ea4f 4e15 	mov.w	lr, r5, lsr #16
 8000300:	fa1f f885 	uxth.w	r8, r5
 8000304:	2701      	movs	r7, #1
 8000306:	fbb1 fcfe 	udiv	ip, r1, lr
 800030a:	0c23      	lsrs	r3, r4, #16
 800030c:	fb0e 111c 	mls	r1, lr, ip, r1
 8000310:	ea43 4301 	orr.w	r3, r3, r1, lsl #16
 8000314:	fb08 f10c 	mul.w	r1, r8, ip
 8000318:	4299      	cmp	r1, r3
 800031a:	d907      	bls.n	800032c <__udivmoddi4+0x124>
 800031c:	18eb      	adds	r3, r5, r3
 800031e:	f10c 30ff 	add.w	r0, ip, #4294967295
 8000322:	d202      	bcs.n	800032a <__udivmoddi4+0x122>
 8000324:	4299      	cmp	r1, r3
 8000326:	f200 80cd 	bhi.w	80004c4 <__udivmoddi4+0x2bc>
 800032a:	4684      	mov	ip, r0
 800032c:	1a59      	subs	r1, r3, r1
 800032e:	b2a3      	uxth	r3, r4
 8000330:	fbb1 f0fe 	udiv	r0, r1, lr
 8000334:	fb0e 1410 	mls	r4, lr, r0, r1
 8000338:	ea43 4404 	orr.w	r4, r3, r4, lsl #16
 800033c:	fb08 f800 	mul.w	r8, r8, r0
 8000340:	45a0      	cmp	r8, r4
 8000342:	d907      	bls.n	8000354 <__udivmoddi4+0x14c>
 8000344:	192c      	adds	r4, r5, r4
 8000346:	f100 33ff 	add.w	r3, r0, #4294967295
 800034a:	d202      	bcs.n	8000352 <__udivmoddi4+0x14a>
 800034c:	45a0      	cmp	r8, r4
 800034e:	f200 80b6 	bhi.w	80004be <__udivmoddi4+0x2b6>
 8000352:	4618      	mov	r0, r3
 8000354:	eba4 0408 	sub.w	r4, r4, r8
 8000358:	ea40 400c 	orr.w	r0, r0, ip, lsl #16
 800035c:	e79f      	b.n	800029e <__udivmoddi4+0x96>
 800035e:	f1c7 0c20 	rsb	ip, r7, #32
 8000362:	40bb      	lsls	r3, r7
 8000364:	fa22 fe0c 	lsr.w	lr, r2, ip
 8000368:	ea4e 0e03 	orr.w	lr, lr, r3
 800036c:	fa01 f407 	lsl.w	r4, r1, r7
 8000370:	fa20 f50c 	lsr.w	r5, r0, ip
 8000374:	fa21 f30c 	lsr.w	r3, r1, ip
 8000378:	ea4f 481e 	mov.w	r8, lr, lsr #16
 800037c:	4325      	orrs	r5, r4
 800037e:	fbb3 f9f8 	udiv	r9, r3, r8
 8000382:	0c2c      	lsrs	r4, r5, #16
 8000384:	fb08 3319 	mls	r3, r8, r9, r3
 8000388:	fa1f fa8e 	uxth.w	sl, lr
 800038c:	ea44 4303 	orr.w	r3, r4, r3, lsl #16
 8000390:	fb09 f40a 	mul.w	r4, r9, sl
 8000394:	429c      	cmp	r4, r3
 8000396:	fa02 f207 	lsl.w	r2, r2, r7
 800039a:	fa00 f107 	lsl.w	r1, r0, r7
 800039e:	d90b      	bls.n	80003b8 <__udivmoddi4+0x1b0>
 80003a0:	eb1e 0303 	adds.w	r3, lr, r3
 80003a4:	f109 30ff 	add.w	r0, r9, #4294967295
 80003a8:	f080 8087 	bcs.w	80004ba <__udivmoddi4+0x2b2>
 80003ac:	429c      	cmp	r4, r3
 80003ae:	f240 8084 	bls.w	80004ba <__udivmoddi4+0x2b2>
 80003b2:	f1a9 0902 	sub.w	r9, r9, #2
 80003b6:	4473      	add	r3, lr
 80003b8:	1b1b      	subs	r3, r3, r4
 80003ba:	b2ad      	uxth	r5, r5
 80003bc:	fbb3 f0f8 	udiv	r0, r3, r8
 80003c0:	fb08 3310 	mls	r3, r8, r0, r3
 80003c4:	ea45 4403 	orr.w	r4, r5, r3, lsl #16
 80003c8:	fb00 fa0a 	mul.w	sl, r0, sl
 80003cc:	45a2      	cmp	sl, r4
 80003ce:	d908      	bls.n	80003e2 <__udivmoddi4+0x1da>
 80003d0:	eb1e 0404 	adds.w	r4, lr, r4
 80003d4:	f100 33ff 	add.w	r3, r0, #4294967295
 80003d8:	d26b      	bcs.n	80004b2 <__udivmoddi4+0x2aa>
 80003da:	45a2      	cmp	sl, r4
 80003dc:	d969      	bls.n	80004b2 <__udivmoddi4+0x2aa>
 80003de:	3802      	subs	r0, #2
 80003e0:	4474      	add	r4, lr
 80003e2:	ea40 4009 	orr.w	r0, r0, r9, lsl #16
 80003e6:	fba0 8902 	umull	r8, r9, r0, r2
 80003ea:	eba4 040a 	sub.w	r4, r4, sl
 80003ee:	454c      	cmp	r4, r9
 80003f0:	46c2      	mov	sl, r8
 80003f2:	464b      	mov	r3, r9
 80003f4:	d354      	bcc.n	80004a0 <__udivmoddi4+0x298>
 80003f6:	d051      	beq.n	800049c <__udivmoddi4+0x294>
 80003f8:	2e00      	cmp	r6, #0
 80003fa:	d069      	beq.n	80004d0 <__udivmoddi4+0x2c8>
 80003fc:	ebb1 050a 	subs.w	r5, r1, sl
 8000400:	eb64 0403 	sbc.w	r4, r4, r3
 8000404:	fa04 fc0c 	lsl.w	ip, r4, ip
 8000408:	40fd      	lsrs	r5, r7
 800040a:	40fc      	lsrs	r4, r7
 800040c:	ea4c 0505 	orr.w	r5, ip, r5
 8000410:	e9c6 5400 	strd	r5, r4, [r6]
 8000414:	2700      	movs	r7, #0
 8000416:	e747      	b.n	80002a8 <__udivmoddi4+0xa0>
 8000418:	f1c2 0320 	rsb	r3, r2, #32
 800041c:	fa20 f703 	lsr.w	r7, r0, r3
 8000420:	4095      	lsls	r5, r2
 8000422:	fa01 f002 	lsl.w	r0, r1, r2
 8000426:	fa21 f303 	lsr.w	r3, r1, r3
 800042a:	ea4f 4e15 	mov.w	lr, r5, lsr #16
 800042e:	4338      	orrs	r0, r7
 8000430:	0c01      	lsrs	r1, r0, #16
 8000432:	fbb3 f7fe 	udiv	r7, r3, lr
 8000436:	fa1f f885 	uxth.w	r8, r5
 800043a:	fb0e 3317 	mls	r3, lr, r7, r3
 800043e:	ea41 4103 	orr.w	r1, r1, r3, lsl #16
 8000442:	fb07 f308 	mul.w	r3, r7, r8
 8000446:	428b      	cmp	r3, r1
 8000448:	fa04 f402 	lsl.w	r4, r4, r2
 800044c:	d907      	bls.n	800045e <__udivmoddi4+0x256>
 800044e:	1869      	adds	r1, r5, r1
 8000450:	f107 3cff 	add.w	ip, r7, #4294967295
 8000454:	d22f      	bcs.n	80004b6 <__udivmoddi4+0x2ae>
 8000456:	428b      	cmp	r3, r1
 8000458:	d92d      	bls.n	80004b6 <__udivmoddi4+0x2ae>
 800045a:	3f02      	subs	r7, #2
 800045c:	4429      	add	r1, r5
 800045e:	1acb      	subs	r3, r1, r3
 8000460:	b281      	uxth	r1, r0
 8000462:	fbb3 f0fe 	udiv	r0, r3, lr
 8000466:	fb0e 3310 	mls	r3, lr, r0, r3
 800046a:	ea41 4103 	orr.w	r1, r1, r3, lsl #16
 800046e:	fb00 f308 	mul.w	r3, r0, r8
 8000472:	428b      	cmp	r3, r1
 8000474:	d907      	bls.n	8000486 <__udivmoddi4+0x27e>
 8000476:	1869      	adds	r1, r5, r1
 8000478:	f100 3cff 	add.w	ip, r0, #4294967295
 800047c:	d217      	bcs.n	80004ae <__udivmoddi4+0x2a6>
 800047e:	428b      	cmp	r3, r1
 8000480:	d915      	bls.n	80004ae <__udivmoddi4+0x2a6>
 8000482:	3802      	subs	r0, #2
 8000484:	4429      	add	r1, r5
 8000486:	1ac9      	subs	r1, r1, r3
 8000488:	ea40 4707 	orr.w	r7, r0, r7, lsl #16
 800048c:	e73b      	b.n	8000306 <__udivmoddi4+0xfe>
 800048e:	4637      	mov	r7, r6
 8000490:	4630      	mov	r0, r6
 8000492:	e709      	b.n	80002a8 <__udivmoddi4+0xa0>
 8000494:	4607      	mov	r7, r0
 8000496:	e6e7      	b.n	8000268 <__udivmoddi4+0x60>
 8000498:	4618      	mov	r0, r3
 800049a:	e6fb      	b.n	8000294 <__udivmoddi4+0x8c>
 800049c:	4541      	cmp	r1, r8
 800049e:	d2ab      	bcs.n	80003f8 <__udivmoddi4+0x1f0>
 80004a0:	ebb8 0a02 	subs.w	sl, r8, r2
 80004a4:	eb69 020e 	sbc.w	r2, r9, lr
 80004a8:	3801      	subs	r0, #1
 80004aa:	4613      	mov	r3, r2
 80004ac:	e7a4      	b.n	80003f8 <__udivmoddi4+0x1f0>
 80004ae:	4660      	mov	r0, ip
 80004b0:	e7e9      	b.n	8000486 <__udivmoddi4+0x27e>
 80004b2:	4618      	mov	r0, r3
 80004b4:	e795      	b.n	80003e2 <__udivmoddi4+0x1da>
 80004b6:	4667      	mov	r7, ip
 80004b8:	e7d1      	b.n	800045e <__udivmoddi4+0x256>
 80004ba:	4681      	mov	r9, r0
 80004bc:	e77c      	b.n	80003b8 <__udivmoddi4+0x1b0>
 80004be:	3802      	subs	r0, #2
 80004c0:	442c      	add	r4, r5
 80004c2:	e747      	b.n	8000354 <__udivmoddi4+0x14c>
 80004c4:	f1ac 0c02 	sub.w	ip, ip, #2
 80004c8:	442b      	add	r3, r5
 80004ca:	e72f      	b.n	800032c <__udivmoddi4+0x124>
 80004cc:	4638      	mov	r0, r7
 80004ce:	e708      	b.n	80002e2 <__udivmoddi4+0xda>
 80004d0:	4637      	mov	r7, r6
 80004d2:	e6e9      	b.n	80002a8 <__udivmoddi4+0xa0>

080004d4 <__aeabi_idiv0>:
 80004d4:	4770      	bx	lr
 80004d6:	bf00      	nop

080004d8 <HAL_Init>:
 80004d8:	b580      	push	{r7, lr}
 80004da:	af00      	add	r7, sp, #0
 80004dc:	4b0b      	ldr	r3, [pc, #44]	; (800050c <HAL_Init+0x34>)
 80004de:	681b      	ldr	r3, [r3, #0]
 80004e0:	4a0a      	ldr	r2, [pc, #40]	; (800050c <HAL_Init+0x34>)
 80004e2:	f443 7300 	orr.w	r3, r3, #512	; 0x200
 80004e6:	6013      	str	r3, [r2, #0]
 80004e8:	4b08      	ldr	r3, [pc, #32]	; (800050c <HAL_Init+0x34>)
 80004ea:	681b      	ldr	r3, [r3, #0]
 80004ec:	4a07      	ldr	r2, [pc, #28]	; (800050c <HAL_Init+0x34>)
 80004ee:	f443 6380 	orr.w	r3, r3, #1024	; 0x400
 80004f2:	6013      	str	r3, [r2, #0]
 80004f4:	2003      	movs	r0, #3
 80004f6:	f000 f92f 	bl	8000758 <HAL_NVIC_SetPriorityGrouping>
 80004fa:	200f      	movs	r0, #15
 80004fc:	f000 f808 	bl	8000510 <HAL_InitTick>
 8000500:	f001 f80f 	bl	8001522 <HAL_MspInit>
 8000504:	2300      	movs	r3, #0
 8000506:	4618      	mov	r0, r3
 8000508:	bd80      	pop	{r7, pc}
 800050a:	bf00      	nop
 800050c:	40023c00 	.word	0x40023c00

08000510 <HAL_InitTick>:
 8000510:	b580      	push	{r7, lr}
 8000512:	b082      	sub	sp, #8
 8000514:	af00      	add	r7, sp, #0
 8000516:	6078      	str	r0, [r7, #4]
 8000518:	4b12      	ldr	r3, [pc, #72]	; (8000564 <HAL_InitTick+0x54>)
 800051a:	681a      	ldr	r2, [r3, #0]
 800051c:	4b12      	ldr	r3, [pc, #72]	; (8000568 <HAL_InitTick+0x58>)
 800051e:	781b      	ldrb	r3, [r3, #0]
 8000520:	4619      	mov	r1, r3
 8000522:	f44f 737a 	mov.w	r3, #1000	; 0x3e8
 8000526:	fbb3 f3f1 	udiv	r3, r3, r1
 800052a:	fbb2 f3f3 	udiv	r3, r2, r3
 800052e:	4618      	mov	r0, r3
 8000530:	f000 f939 	bl	80007a6 <HAL_SYSTICK_Config>
 8000534:	4603      	mov	r3, r0
 8000536:	2b00      	cmp	r3, #0
 8000538:	d001      	beq.n	800053e <HAL_InitTick+0x2e>
 800053a:	2301      	movs	r3, #1
 800053c:	e00e      	b.n	800055c <HAL_InitTick+0x4c>
 800053e:	687b      	ldr	r3, [r7, #4]
 8000540:	2b0f      	cmp	r3, #15
 8000542:	d80a      	bhi.n	800055a <HAL_InitTick+0x4a>
 8000544:	2200      	movs	r2, #0
 8000546:	6879      	ldr	r1, [r7, #4]
 8000548:	f04f 30ff 	mov.w	r0, #4294967295
 800054c:	f000 f90f 	bl	800076e <HAL_NVIC_SetPriority>
 8000550:	4a06      	ldr	r2, [pc, #24]	; (800056c <HAL_InitTick+0x5c>)
 8000552:	687b      	ldr	r3, [r7, #4]
 8000554:	6013      	str	r3, [r2, #0]
 8000556:	2300      	movs	r3, #0
 8000558:	e000      	b.n	800055c <HAL_InitTick+0x4c>
 800055a:	2301      	movs	r3, #1
 800055c:	4618      	mov	r0, r3
 800055e:	3708      	adds	r7, #8
 8000560:	46bd      	mov	sp, r7
 8000562:	bd80      	pop	{r7, pc}
 8000564:	20000020 	.word	0x20000020
 8000568:	20000004 	.word	0x20000004
 800056c:	20000000 	.word	0x20000000

08000570 <HAL_IncTick>:
 8000570:	b480      	push	{r7}
 8000572:	af00      	add	r7, sp, #0
 8000574:	4b06      	ldr	r3, [pc, #24]	; (8000590 <HAL_IncTick+0x20>)
 8000576:	781b      	ldrb	r3, [r3, #0]
 8000578:	461a      	mov	r2, r3
 800057a:	4b06      	ldr	r3, [pc, #24]	; (8000594 <HAL_IncTick+0x24>)
 800057c:	681b      	ldr	r3, [r3, #0]
 800057e:	4413      	add	r3, r2
 8000580:	4a04      	ldr	r2, [pc, #16]	; (8000594 <HAL_IncTick+0x24>)
 8000582:	6013      	str	r3, [r2, #0]
 8000584:	bf00      	nop
 8000586:	46bd      	mov	sp, r7
 8000588:	f85d 7b04 	ldr.w	r7, [sp], #4
 800058c:	4770      	bx	lr
 800058e:	bf00      	nop
 8000590:	20000004 	.word	0x20000004
 8000594:	20000448 	.word	0x20000448

08000598 <HAL_GetTick>:
 8000598:	b480      	push	{r7}
 800059a:	af00      	add	r7, sp, #0
 800059c:	4b03      	ldr	r3, [pc, #12]	; (80005ac <HAL_GetTick+0x14>)
 800059e:	681b      	ldr	r3, [r3, #0]
 80005a0:	4618      	mov	r0, r3
 80005a2:	46bd      	mov	sp, r7
 80005a4:	f85d 7b04 	ldr.w	r7, [sp], #4
 80005a8:	4770      	bx	lr
 80005aa:	bf00      	nop
 80005ac:	20000448 	.word	0x20000448

080005b0 <HAL_Delay>:
 80005b0:	b580      	push	{r7, lr}
 80005b2:	b084      	sub	sp, #16
 80005b4:	af00      	add	r7, sp, #0
 80005b6:	6078      	str	r0, [r7, #4]
 80005b8:	f7ff ffee 	bl	8000598 <HAL_GetTick>
 80005bc:	60b8      	str	r0, [r7, #8]
 80005be:	687b      	ldr	r3, [r7, #4]
 80005c0:	60fb      	str	r3, [r7, #12]
 80005c2:	68fb      	ldr	r3, [r7, #12]
 80005c4:	f1b3 3fff 	cmp.w	r3, #4294967295
 80005c8:	d005      	beq.n	80005d6 <HAL_Delay+0x26>
 80005ca:	4b09      	ldr	r3, [pc, #36]	; (80005f0 <HAL_Delay+0x40>)
 80005cc:	781b      	ldrb	r3, [r3, #0]
 80005ce:	461a      	mov	r2, r3
 80005d0:	68fb      	ldr	r3, [r7, #12]
 80005d2:	4413      	add	r3, r2
 80005d4:	60fb      	str	r3, [r7, #12]
 80005d6:	bf00      	nop
 80005d8:	f7ff ffde 	bl	8000598 <HAL_GetTick>
 80005dc:	4602      	mov	r2, r0
 80005de:	68bb      	ldr	r3, [r7, #8]
 80005e0:	1ad3      	subs	r3, r2, r3
 80005e2:	68fa      	ldr	r2, [r7, #12]
 80005e4:	429a      	cmp	r2, r3
 80005e6:	d8f7      	bhi.n	80005d8 <HAL_Delay+0x28>
 80005e8:	bf00      	nop
 80005ea:	3710      	adds	r7, #16
 80005ec:	46bd      	mov	sp, r7
 80005ee:	bd80      	pop	{r7, pc}
 80005f0:	20000004 	.word	0x20000004

080005f4 <NVIC_SetPriorityGrouping>:
 80005f4:	b480      	push	{r7}
 80005f6:	b085      	sub	sp, #20
 80005f8:	af00      	add	r7, sp, #0
 80005fa:	6078      	str	r0, [r7, #4]
 80005fc:	687b      	ldr	r3, [r7, #4]
 80005fe:	f003 0307 	and.w	r3, r3, #7
 8000602:	60fb      	str	r3, [r7, #12]
 8000604:	4b0c      	ldr	r3, [pc, #48]	; (8000638 <NVIC_SetPriorityGrouping+0x44>)
 8000606:	68db      	ldr	r3, [r3, #12]
 8000608:	60bb      	str	r3, [r7, #8]
 800060a:	68ba      	ldr	r2, [r7, #8]
 800060c:	f64f 03ff 	movw	r3, #63743	; 0xf8ff
 8000610:	4013      	ands	r3, r2
 8000612:	60bb      	str	r3, [r7, #8]
 8000614:	68fb      	ldr	r3, [r7, #12]
 8000616:	021a      	lsls	r2, r3, #8
 8000618:	68bb      	ldr	r3, [r7, #8]
 800061a:	4313      	orrs	r3, r2
 800061c:	f043 63bf 	orr.w	r3, r3, #100139008	; 0x5f80000
 8000620:	f443 3300 	orr.w	r3, r3, #131072	; 0x20000
 8000624:	60bb      	str	r3, [r7, #8]
 8000626:	4a04      	ldr	r2, [pc, #16]	; (8000638 <NVIC_SetPriorityGrouping+0x44>)
 8000628:	68bb      	ldr	r3, [r7, #8]
 800062a:	60d3      	str	r3, [r2, #12]
 800062c:	bf00      	nop
 800062e:	3714      	adds	r7, #20
 8000630:	46bd      	mov	sp, r7
 8000632:	f85d 7b04 	ldr.w	r7, [sp], #4
 8000636:	4770      	bx	lr
 8000638:	e000ed00 	.word	0xe000ed00

0800063c <NVIC_GetPriorityGrouping>:
 800063c:	b480      	push	{r7}
 800063e:	af00      	add	r7, sp, #0
 8000640:	4b04      	ldr	r3, [pc, #16]	; (8000654 <NVIC_GetPriorityGrouping+0x18>)
 8000642:	68db      	ldr	r3, [r3, #12]
 8000644:	0a1b      	lsrs	r3, r3, #8
 8000646:	f003 0307 	and.w	r3, r3, #7
 800064a:	4618      	mov	r0, r3
 800064c:	46bd      	mov	sp, r7
 800064e:	f85d 7b04 	ldr.w	r7, [sp], #4
 8000652:	4770      	bx	lr
 8000654:	e000ed00 	.word	0xe000ed00

08000658 <NVIC_SetPriority>:
 8000658:	b480      	push	{r7}
 800065a:	b083      	sub	sp, #12
 800065c:	af00      	add	r7, sp, #0
 800065e:	4603      	mov	r3, r0
 8000660:	6039      	str	r1, [r7, #0]
 8000662:	71fb      	strb	r3, [r7, #7]
 8000664:	f997 3007 	ldrsb.w	r3, [r7, #7]
 8000668:	2b00      	cmp	r3, #0
 800066a:	da0b      	bge.n	8000684 <NVIC_SetPriority+0x2c>
 800066c:	683b      	ldr	r3, [r7, #0]
 800066e:	b2da      	uxtb	r2, r3
 8000670:	490c      	ldr	r1, [pc, #48]	; (80006a4 <NVIC_SetPriority+0x4c>)
 8000672:	79fb      	ldrb	r3, [r7, #7]
 8000674:	f003 030f 	and.w	r3, r3, #15
 8000678:	3b04      	subs	r3, #4
 800067a:	0112      	lsls	r2, r2, #4
 800067c:	b2d2      	uxtb	r2, r2
 800067e:	440b      	add	r3, r1
 8000680:	761a      	strb	r2, [r3, #24]
 8000682:	e009      	b.n	8000698 <NVIC_SetPriority+0x40>
 8000684:	683b      	ldr	r3, [r7, #0]
 8000686:	b2da      	uxtb	r2, r3
 8000688:	4907      	ldr	r1, [pc, #28]	; (80006a8 <NVIC_SetPriority+0x50>)
 800068a:	f997 3007 	ldrsb.w	r3, [r7, #7]
 800068e:	0112      	lsls	r2, r2, #4
 8000690:	b2d2      	uxtb	r2, r2
 8000692:	440b      	add	r3, r1
 8000694:	f883 2300 	strb.w	r2, [r3, #768]	; 0x300
 8000698:	bf00      	nop
 800069a:	370c      	adds	r7, #12
 800069c:	46bd      	mov	sp, r7
 800069e:	f85d 7b04 	ldr.w	r7, [sp], #4
 80006a2:	4770      	bx	lr
 80006a4:	e000ed00 	.word	0xe000ed00
 80006a8:	e000e100 	.word	0xe000e100

080006ac <NVIC_EncodePriority>:
 80006ac:	b480      	push	{r7}
 80006ae:	b089      	sub	sp, #36	; 0x24
 80006b0:	af00      	add	r7, sp, #0
 80006b2:	60f8      	str	r0, [r7, #12]
 80006b4:	60b9      	str	r1, [r7, #8]
 80006b6:	607a      	str	r2, [r7, #4]
 80006b8:	68fb      	ldr	r3, [r7, #12]
 80006ba:	f003 0307 	and.w	r3, r3, #7
 80006be:	61fb      	str	r3, [r7, #28]
 80006c0:	69fb      	ldr	r3, [r7, #28]
 80006c2:	f1c3 0307 	rsb	r3, r3, #7
 80006c6:	2b04      	cmp	r3, #4
 80006c8:	bf28      	it	cs
 80006ca:	2304      	movcs	r3, #4
 80006cc:	61bb      	str	r3, [r7, #24]
 80006ce:	69fb      	ldr	r3, [r7, #28]
 80006d0:	3304      	adds	r3, #4
 80006d2:	2b06      	cmp	r3, #6
 80006d4:	d902      	bls.n	80006dc <NVIC_EncodePriority+0x30>
 80006d6:	69fb      	ldr	r3, [r7, #28]
 80006d8:	3b03      	subs	r3, #3
 80006da:	e000      	b.n	80006de <NVIC_EncodePriority+0x32>
 80006dc:	2300      	movs	r3, #0
 80006de:	617b      	str	r3, [r7, #20]
 80006e0:	f04f 32ff 	mov.w	r2, #4294967295
 80006e4:	69bb      	ldr	r3, [r7, #24]
 80006e6:	fa02 f303 	lsl.w	r3, r2, r3
 80006ea:	43da      	mvns	r2, r3
 80006ec:	68bb      	ldr	r3, [r7, #8]
 80006ee:	401a      	ands	r2, r3
 80006f0:	697b      	ldr	r3, [r7, #20]
 80006f2:	409a      	lsls	r2, r3
 80006f4:	f04f 31ff 	mov.w	r1, #4294967295
 80006f8:	697b      	ldr	r3, [r7, #20]
 80006fa:	fa01 f303 	lsl.w	r3, r1, r3
 80006fe:	43d9      	mvns	r1, r3
 8000700:	687b      	ldr	r3, [r7, #4]
 8000702:	400b      	ands	r3, r1
 8000704:	4313      	orrs	r3, r2
 8000706:	4618      	mov	r0, r3
 8000708:	3724      	adds	r7, #36	; 0x24
 800070a:	46bd      	mov	sp, r7
 800070c:	f85d 7b04 	ldr.w	r7, [sp], #4
 8000710:	4770      	bx	lr
	...

08000714 <SysTick_Config>:
 8000714:	b580      	push	{r7, lr}
 8000716:	b082      	sub	sp, #8
 8000718:	af00      	add	r7, sp, #0
 800071a:	6078      	str	r0, [r7, #4]
 800071c:	687b      	ldr	r3, [r7, #4]
 800071e:	3b01      	subs	r3, #1
 8000720:	f1b3 7f80 	cmp.w	r3, #16777216	; 0x1000000
 8000724:	d301      	bcc.n	800072a <SysTick_Config+0x16>
 8000726:	2301      	movs	r3, #1
 8000728:	e00f      	b.n	800074a <SysTick_Config+0x36>
 800072a:	4a0a      	ldr	r2, [pc, #40]	; (8000754 <SysTick_Config+0x40>)
 800072c:	687b      	ldr	r3, [r7, #4]
 800072e:	3b01      	subs	r3, #1
 8000730:	6053      	str	r3, [r2, #4]
 8000732:	210f      	movs	r1, #15
 8000734:	f04f 30ff 	mov.w	r0, #4294967295
 8000738:	f7ff ff8e 	bl	8000658 <NVIC_SetPriority>
 800073c:	4b05      	ldr	r3, [pc, #20]	; (8000754 <SysTick_Config+0x40>)
 800073e:	2200      	movs	r2, #0
 8000740:	609a      	str	r2, [r3, #8]
 8000742:	4b04      	ldr	r3, [pc, #16]	; (8000754 <SysTick_Config+0x40>)
 8000744:	2207      	movs	r2, #7
 8000746:	601a      	str	r2, [r3, #0]
 8000748:	2300      	movs	r3, #0
 800074a:	4618      	mov	r0, r3
 800074c:	3708      	adds	r7, #8
 800074e:	46bd      	mov	sp, r7
 8000750:	bd80      	pop	{r7, pc}
 8000752:	bf00      	nop
 8000754:	e000e010 	.word	0xe000e010

08000758 <HAL_NVIC_SetPriorityGrouping>:
 8000758:	b580      	push	{r7, lr}
 800075a:	b082      	sub	sp, #8
 800075c:	af00      	add	r7, sp, #0
 800075e:	6078      	str	r0, [r7, #4]
 8000760:	6878      	ldr	r0, [r7, #4]
 8000762:	f7ff ff47 	bl	80005f4 <NVIC_SetPriorityGrouping>
 8000766:	bf00      	nop
 8000768:	3708      	adds	r7, #8
 800076a:	46bd      	mov	sp, r7
 800076c:	bd80      	pop	{r7, pc}

0800076e <HAL_NVIC_SetPriority>:
 800076e:	b580      	push	{r7, lr}
 8000770:	b086      	sub	sp, #24
 8000772:	af00      	add	r7, sp, #0
 8000774:	4603      	mov	r3, r0
 8000776:	60b9      	str	r1, [r7, #8]
 8000778:	607a      	str	r2, [r7, #4]
 800077a:	73fb      	strb	r3, [r7, #15]
 800077c:	2300      	movs	r3, #0
 800077e:	617b      	str	r3, [r7, #20]
 8000780:	f7ff ff5c 	bl	800063c <NVIC_GetPriorityGrouping>
 8000784:	6178      	str	r0, [r7, #20]
 8000786:	687a      	ldr	r2, [r7, #4]
 8000788:	68b9      	ldr	r1, [r7, #8]
 800078a:	6978      	ldr	r0, [r7, #20]
 800078c:	f7ff ff8e 	bl	80006ac <NVIC_EncodePriority>
 8000790:	4602      	mov	r2, r0
 8000792:	f997 300f 	ldrsb.w	r3, [r7, #15]
 8000796:	4611      	mov	r1, r2
 8000798:	4618      	mov	r0, r3
 800079a:	f7ff ff5d 	bl	8000658 <NVIC_SetPriority>
 800079e:	bf00      	nop
 80007a0:	3718      	adds	r7, #24
 80007a2:	46bd      	mov	sp, r7
 80007a4:	bd80      	pop	{r7, pc}

080007a6 <HAL_SYSTICK_Config>:
 80007a6:	b580      	push	{r7, lr}
 80007a8:	b082      	sub	sp, #8
 80007aa:	af00      	add	r7, sp, #0
 80007ac:	6078      	str	r0, [r7, #4]
 80007ae:	6878      	ldr	r0, [r7, #4]
 80007b0:	f7ff ffb0 	bl	8000714 <SysTick_Config>
 80007b4:	4603      	mov	r3, r0
 80007b6:	4618      	mov	r0, r3
 80007b8:	3708      	adds	r7, #8
 80007ba:	46bd      	mov	sp, r7
 80007bc:	bd80      	pop	{r7, pc}

080007be <HAL_SYSTICK_IRQHandler>:
 80007be:	b580      	push	{r7, lr}
 80007c0:	af00      	add	r7, sp, #0
 80007c2:	f000 f802 	bl	80007ca <HAL_SYSTICK_Callback>
 80007c6:	bf00      	nop
 80007c8:	bd80      	pop	{r7, pc}

080007ca <HAL_SYSTICK_Callback>:
 80007ca:	b480      	push	{r7}
 80007cc:	af00      	add	r7, sp, #0
 80007ce:	bf00      	nop
 80007d0:	46bd      	mov	sp, r7
 80007d2:	f85d 7b04 	ldr.w	r7, [sp], #4
 80007d6:	4770      	bx	lr

080007d8 <HAL_GPIO_Init>:
 80007d8:	b480      	push	{r7}
 80007da:	b089      	sub	sp, #36	; 0x24
 80007dc:	af00      	add	r7, sp, #0
 80007de:	6078      	str	r0, [r7, #4]
 80007e0:	6039      	str	r1, [r7, #0]
 80007e2:	2300      	movs	r3, #0
 80007e4:	617b      	str	r3, [r7, #20]
 80007e6:	2300      	movs	r3, #0
 80007e8:	613b      	str	r3, [r7, #16]
 80007ea:	2300      	movs	r3, #0
 80007ec:	61bb      	str	r3, [r7, #24]
 80007ee:	2300      	movs	r3, #0
 80007f0:	61fb      	str	r3, [r7, #28]
 80007f2:	e16b      	b.n	8000acc <HAL_GPIO_Init+0x2f4>
 80007f4:	2201      	movs	r2, #1
 80007f6:	69fb      	ldr	r3, [r7, #28]
 80007f8:	fa02 f303 	lsl.w	r3, r2, r3
 80007fc:	617b      	str	r3, [r7, #20]
 80007fe:	683b      	ldr	r3, [r7, #0]
 8000800:	681b      	ldr	r3, [r3, #0]
 8000802:	697a      	ldr	r2, [r7, #20]
 8000804:	4013      	ands	r3, r2
 8000806:	613b      	str	r3, [r7, #16]
 8000808:	693a      	ldr	r2, [r7, #16]
 800080a:	697b      	ldr	r3, [r7, #20]
 800080c:	429a      	cmp	r2, r3
 800080e:	f040 815a 	bne.w	8000ac6 <HAL_GPIO_Init+0x2ee>
 8000812:	683b      	ldr	r3, [r7, #0]
 8000814:	685b      	ldr	r3, [r3, #4]
 8000816:	2b02      	cmp	r3, #2
 8000818:	d003      	beq.n	8000822 <HAL_GPIO_Init+0x4a>
 800081a:	683b      	ldr	r3, [r7, #0]
 800081c:	685b      	ldr	r3, [r3, #4]
 800081e:	2b12      	cmp	r3, #18
 8000820:	d123      	bne.n	800086a <HAL_GPIO_Init+0x92>
 8000822:	69fb      	ldr	r3, [r7, #28]
 8000824:	08da      	lsrs	r2, r3, #3
 8000826:	687b      	ldr	r3, [r7, #4]
 8000828:	3208      	adds	r2, #8
 800082a:	f853 3022 	ldr.w	r3, [r3, r2, lsl #2]
 800082e:	61bb      	str	r3, [r7, #24]
 8000830:	69fb      	ldr	r3, [r7, #28]
 8000832:	f003 0307 	and.w	r3, r3, #7
 8000836:	009b      	lsls	r3, r3, #2
 8000838:	220f      	movs	r2, #15
 800083a:	fa02 f303 	lsl.w	r3, r2, r3
 800083e:	43db      	mvns	r3, r3
 8000840:	69ba      	ldr	r2, [r7, #24]
 8000842:	4013      	ands	r3, r2
 8000844:	61bb      	str	r3, [r7, #24]
 8000846:	683b      	ldr	r3, [r7, #0]
 8000848:	691a      	ldr	r2, [r3, #16]
 800084a:	69fb      	ldr	r3, [r7, #28]
 800084c:	f003 0307 	and.w	r3, r3, #7
 8000850:	009b      	lsls	r3, r3, #2
 8000852:	fa02 f303 	lsl.w	r3, r2, r3
 8000856:	69ba      	ldr	r2, [r7, #24]
 8000858:	4313      	orrs	r3, r2
 800085a:	61bb      	str	r3, [r7, #24]
 800085c:	69fb      	ldr	r3, [r7, #28]
 800085e:	08da      	lsrs	r2, r3, #3
 8000860:	687b      	ldr	r3, [r7, #4]
 8000862:	3208      	adds	r2, #8
 8000864:	69b9      	ldr	r1, [r7, #24]
 8000866:	f843 1022 	str.w	r1, [r3, r2, lsl #2]
 800086a:	687b      	ldr	r3, [r7, #4]
 800086c:	681b      	ldr	r3, [r3, #0]
 800086e:	61bb      	str	r3, [r7, #24]
 8000870:	69fb      	ldr	r3, [r7, #28]
 8000872:	005b      	lsls	r3, r3, #1
 8000874:	2203      	movs	r2, #3
 8000876:	fa02 f303 	lsl.w	r3, r2, r3
 800087a:	43db      	mvns	r3, r3
 800087c:	69ba      	ldr	r2, [r7, #24]
 800087e:	4013      	ands	r3, r2
 8000880:	61bb      	str	r3, [r7, #24]
 8000882:	683b      	ldr	r3, [r7, #0]
 8000884:	685b      	ldr	r3, [r3, #4]
 8000886:	f003 0203 	and.w	r2, r3, #3
 800088a:	69fb      	ldr	r3, [r7, #28]
 800088c:	005b      	lsls	r3, r3, #1
 800088e:	fa02 f303 	lsl.w	r3, r2, r3
 8000892:	69ba      	ldr	r2, [r7, #24]
 8000894:	4313      	orrs	r3, r2
 8000896:	61bb      	str	r3, [r7, #24]
 8000898:	687b      	ldr	r3, [r7, #4]
 800089a:	69ba      	ldr	r2, [r7, #24]
 800089c:	601a      	str	r2, [r3, #0]
 800089e:	683b      	ldr	r3, [r7, #0]
 80008a0:	685b      	ldr	r3, [r3, #4]
 80008a2:	2b01      	cmp	r3, #1
 80008a4:	d00b      	beq.n	80008be <HAL_GPIO_Init+0xe6>
 80008a6:	683b      	ldr	r3, [r7, #0]
 80008a8:	685b      	ldr	r3, [r3, #4]
 80008aa:	2b02      	cmp	r3, #2
 80008ac:	d007      	beq.n	80008be <HAL_GPIO_Init+0xe6>
 80008ae:	683b      	ldr	r3, [r7, #0]
 80008b0:	685b      	ldr	r3, [r3, #4]
 80008b2:	2b11      	cmp	r3, #17
 80008b4:	d003      	beq.n	80008be <HAL_GPIO_Init+0xe6>
 80008b6:	683b      	ldr	r3, [r7, #0]
 80008b8:	685b      	ldr	r3, [r3, #4]
 80008ba:	2b12      	cmp	r3, #18
 80008bc:	d130      	bne.n	8000920 <HAL_GPIO_Init+0x148>
 80008be:	687b      	ldr	r3, [r7, #4]
 80008c0:	689b      	ldr	r3, [r3, #8]
 80008c2:	61bb      	str	r3, [r7, #24]
 80008c4:	69fb      	ldr	r3, [r7, #28]
 80008c6:	005b      	lsls	r3, r3, #1
 80008c8:	2203      	movs	r2, #3
 80008ca:	fa02 f303 	lsl.w	r3, r2, r3
 80008ce:	43db      	mvns	r3, r3
 80008d0:	69ba      	ldr	r2, [r7, #24]
 80008d2:	4013      	ands	r3, r2
 80008d4:	61bb      	str	r3, [r7, #24]
 80008d6:	683b      	ldr	r3, [r7, #0]
 80008d8:	68da      	ldr	r2, [r3, #12]
 80008da:	69fb      	ldr	r3, [r7, #28]
 80008dc:	005b      	lsls	r3, r3, #1
 80008de:	fa02 f303 	lsl.w	r3, r2, r3
 80008e2:	69ba      	ldr	r2, [r7, #24]
 80008e4:	4313      	orrs	r3, r2
 80008e6:	61bb      	str	r3, [r7, #24]
 80008e8:	687b      	ldr	r3, [r7, #4]
 80008ea:	69ba      	ldr	r2, [r7, #24]
 80008ec:	609a      	str	r2, [r3, #8]
 80008ee:	687b      	ldr	r3, [r7, #4]
 80008f0:	685b      	ldr	r3, [r3, #4]
 80008f2:	61bb      	str	r3, [r7, #24]
 80008f4:	2201      	movs	r2, #1
 80008f6:	69fb      	ldr	r3, [r7, #28]
 80008f8:	fa02 f303 	lsl.w	r3, r2, r3
 80008fc:	43db      	mvns	r3, r3
 80008fe:	69ba      	ldr	r2, [r7, #24]
 8000900:	4013      	ands	r3, r2
 8000902:	61bb      	str	r3, [r7, #24]
 8000904:	683b      	ldr	r3, [r7, #0]
 8000906:	685b      	ldr	r3, [r3, #4]
 8000908:	091b      	lsrs	r3, r3, #4
 800090a:	f003 0201 	and.w	r2, r3, #1
 800090e:	69fb      	ldr	r3, [r7, #28]
 8000910:	fa02 f303 	lsl.w	r3, r2, r3
 8000914:	69ba      	ldr	r2, [r7, #24]
 8000916:	4313      	orrs	r3, r2
 8000918:	61bb      	str	r3, [r7, #24]
 800091a:	687b      	ldr	r3, [r7, #4]
 800091c:	69ba      	ldr	r2, [r7, #24]
 800091e:	605a      	str	r2, [r3, #4]
 8000920:	687b      	ldr	r3, [r7, #4]
 8000922:	68db      	ldr	r3, [r3, #12]
 8000924:	61bb      	str	r3, [r7, #24]
 8000926:	69fb      	ldr	r3, [r7, #28]
 8000928:	005b      	lsls	r3, r3, #1
 800092a:	2203      	movs	r2, #3
 800092c:	fa02 f303 	lsl.w	r3, r2, r3
 8000930:	43db      	mvns	r3, r3
 8000932:	69ba      	ldr	r2, [r7, #24]
 8000934:	4013      	ands	r3, r2
 8000936:	61bb      	str	r3, [r7, #24]
 8000938:	683b      	ldr	r3, [r7, #0]
 800093a:	689a      	ldr	r2, [r3, #8]
 800093c:	69fb      	ldr	r3, [r7, #28]
 800093e:	005b      	lsls	r3, r3, #1
 8000940:	fa02 f303 	lsl.w	r3, r2, r3
 8000944:	69ba      	ldr	r2, [r7, #24]
 8000946:	4313      	orrs	r3, r2
 8000948:	61bb      	str	r3, [r7, #24]
 800094a:	687b      	ldr	r3, [r7, #4]
 800094c:	69ba      	ldr	r2, [r7, #24]
 800094e:	60da      	str	r2, [r3, #12]
 8000950:	683b      	ldr	r3, [r7, #0]
 8000952:	685b      	ldr	r3, [r3, #4]
 8000954:	f003 5380 	and.w	r3, r3, #268435456	; 0x10000000
 8000958:	2b00      	cmp	r3, #0
 800095a:	f000 80b4 	beq.w	8000ac6 <HAL_GPIO_Init+0x2ee>
 800095e:	2300      	movs	r3, #0
 8000960:	60fb      	str	r3, [r7, #12]
 8000962:	4b5f      	ldr	r3, [pc, #380]	; (8000ae0 <HAL_GPIO_Init+0x308>)
 8000964:	6c5b      	ldr	r3, [r3, #68]	; 0x44
 8000966:	4a5e      	ldr	r2, [pc, #376]	; (8000ae0 <HAL_GPIO_Init+0x308>)
 8000968:	f443 4380 	orr.w	r3, r3, #16384	; 0x4000
 800096c:	6453      	str	r3, [r2, #68]	; 0x44
 800096e:	4b5c      	ldr	r3, [pc, #368]	; (8000ae0 <HAL_GPIO_Init+0x308>)
 8000970:	6c5b      	ldr	r3, [r3, #68]	; 0x44
 8000972:	f403 4380 	and.w	r3, r3, #16384	; 0x4000
 8000976:	60fb      	str	r3, [r7, #12]
 8000978:	68fb      	ldr	r3, [r7, #12]
 800097a:	4a5a      	ldr	r2, [pc, #360]	; (8000ae4 <HAL_GPIO_Init+0x30c>)
 800097c:	69fb      	ldr	r3, [r7, #28]
 800097e:	089b      	lsrs	r3, r3, #2
 8000980:	3302      	adds	r3, #2
 8000982:	f852 3023 	ldr.w	r3, [r2, r3, lsl #2]
 8000986:	61bb      	str	r3, [r7, #24]
 8000988:	69fb      	ldr	r3, [r7, #28]
 800098a:	f003 0303 	and.w	r3, r3, #3
 800098e:	009b      	lsls	r3, r3, #2
 8000990:	220f      	movs	r2, #15
 8000992:	fa02 f303 	lsl.w	r3, r2, r3
 8000996:	43db      	mvns	r3, r3
 8000998:	69ba      	ldr	r2, [r7, #24]
 800099a:	4013      	ands	r3, r2
 800099c:	61bb      	str	r3, [r7, #24]
 800099e:	687b      	ldr	r3, [r7, #4]
 80009a0:	4a51      	ldr	r2, [pc, #324]	; (8000ae8 <HAL_GPIO_Init+0x310>)
 80009a2:	4293      	cmp	r3, r2
 80009a4:	d02b      	beq.n	80009fe <HAL_GPIO_Init+0x226>
 80009a6:	687b      	ldr	r3, [r7, #4]
 80009a8:	4a50      	ldr	r2, [pc, #320]	; (8000aec <HAL_GPIO_Init+0x314>)
 80009aa:	4293      	cmp	r3, r2
 80009ac:	d025      	beq.n	80009fa <HAL_GPIO_Init+0x222>
 80009ae:	687b      	ldr	r3, [r7, #4]
 80009b0:	4a4f      	ldr	r2, [pc, #316]	; (8000af0 <HAL_GPIO_Init+0x318>)
 80009b2:	4293      	cmp	r3, r2
 80009b4:	d01f      	beq.n	80009f6 <HAL_GPIO_Init+0x21e>
 80009b6:	687b      	ldr	r3, [r7, #4]
 80009b8:	4a4e      	ldr	r2, [pc, #312]	; (8000af4 <HAL_GPIO_Init+0x31c>)
 80009ba:	4293      	cmp	r3, r2
 80009bc:	d019      	beq.n	80009f2 <HAL_GPIO_Init+0x21a>
 80009be:	687b      	ldr	r3, [r7, #4]
 80009c0:	4a4d      	ldr	r2, [pc, #308]	; (8000af8 <HAL_GPIO_Init+0x320>)
 80009c2:	4293      	cmp	r3, r2
 80009c4:	d013      	beq.n	80009ee <HAL_GPIO_Init+0x216>
 80009c6:	687b      	ldr	r3, [r7, #4]
 80009c8:	4a4c      	ldr	r2, [pc, #304]	; (8000afc <HAL_GPIO_Init+0x324>)
 80009ca:	4293      	cmp	r3, r2
 80009cc:	d00d      	beq.n	80009ea <HAL_GPIO_Init+0x212>
 80009ce:	687b      	ldr	r3, [r7, #4]
 80009d0:	4a4b      	ldr	r2, [pc, #300]	; (8000b00 <HAL_GPIO_Init+0x328>)
 80009d2:	4293      	cmp	r3, r2
 80009d4:	d007      	beq.n	80009e6 <HAL_GPIO_Init+0x20e>
 80009d6:	687b      	ldr	r3, [r7, #4]
 80009d8:	4a4a      	ldr	r2, [pc, #296]	; (8000b04 <HAL_GPIO_Init+0x32c>)
 80009da:	4293      	cmp	r3, r2
 80009dc:	d101      	bne.n	80009e2 <HAL_GPIO_Init+0x20a>
 80009de:	2307      	movs	r3, #7
 80009e0:	e00e      	b.n	8000a00 <HAL_GPIO_Init+0x228>
 80009e2:	2308      	movs	r3, #8
 80009e4:	e00c      	b.n	8000a00 <HAL_GPIO_Init+0x228>
 80009e6:	2306      	movs	r3, #6
 80009e8:	e00a      	b.n	8000a00 <HAL_GPIO_Init+0x228>
 80009ea:	2305      	movs	r3, #5
 80009ec:	e008      	b.n	8000a00 <HAL_GPIO_Init+0x228>
 80009ee:	2304      	movs	r3, #4
 80009f0:	e006      	b.n	8000a00 <HAL_GPIO_Init+0x228>
 80009f2:	2303      	movs	r3, #3
 80009f4:	e004      	b.n	8000a00 <HAL_GPIO_Init+0x228>
 80009f6:	2302      	movs	r3, #2
 80009f8:	e002      	b.n	8000a00 <HAL_GPIO_Init+0x228>
 80009fa:	2301      	movs	r3, #1
 80009fc:	e000      	b.n	8000a00 <HAL_GPIO_Init+0x228>
 80009fe:	2300      	movs	r3, #0
 8000a00:	69fa      	ldr	r2, [r7, #28]
 8000a02:	f002 0203 	and.w	r2, r2, #3
 8000a06:	0092      	lsls	r2, r2, #2
 8000a08:	4093      	lsls	r3, r2
 8000a0a:	69ba      	ldr	r2, [r7, #24]
 8000a0c:	4313      	orrs	r3, r2
 8000a0e:	61bb      	str	r3, [r7, #24]
 8000a10:	4934      	ldr	r1, [pc, #208]	; (8000ae4 <HAL_GPIO_Init+0x30c>)
 8000a12:	69fb      	ldr	r3, [r7, #28]
 8000a14:	089b      	lsrs	r3, r3, #2
 8000a16:	3302      	adds	r3, #2
 8000a18:	69ba      	ldr	r2, [r7, #24]
 8000a1a:	f841 2023 	str.w	r2, [r1, r3, lsl #2]
 8000a1e:	4b3a      	ldr	r3, [pc, #232]	; (8000b08 <HAL_GPIO_Init+0x330>)
 8000a20:	681b      	ldr	r3, [r3, #0]
 8000a22:	61bb      	str	r3, [r7, #24]
 8000a24:	693b      	ldr	r3, [r7, #16]
 8000a26:	43db      	mvns	r3, r3
 8000a28:	69ba      	ldr	r2, [r7, #24]
 8000a2a:	4013      	ands	r3, r2
 8000a2c:	61bb      	str	r3, [r7, #24]
 8000a2e:	683b      	ldr	r3, [r7, #0]
 8000a30:	685b      	ldr	r3, [r3, #4]
 8000a32:	f403 3380 	and.w	r3, r3, #65536	; 0x10000
 8000a36:	2b00      	cmp	r3, #0
 8000a38:	d003      	beq.n	8000a42 <HAL_GPIO_Init+0x26a>
 8000a3a:	69ba      	ldr	r2, [r7, #24]
 8000a3c:	693b      	ldr	r3, [r7, #16]
 8000a3e:	4313      	orrs	r3, r2
 8000a40:	61bb      	str	r3, [r7, #24]
 8000a42:	4a31      	ldr	r2, [pc, #196]	; (8000b08 <HAL_GPIO_Init+0x330>)
 8000a44:	69bb      	ldr	r3, [r7, #24]
 8000a46:	6013      	str	r3, [r2, #0]
 8000a48:	4b2f      	ldr	r3, [pc, #188]	; (8000b08 <HAL_GPIO_Init+0x330>)
 8000a4a:	685b      	ldr	r3, [r3, #4]
 8000a4c:	61bb      	str	r3, [r7, #24]
 8000a4e:	693b      	ldr	r3, [r7, #16]
 8000a50:	43db      	mvns	r3, r3
 8000a52:	69ba      	ldr	r2, [r7, #24]
 8000a54:	4013      	ands	r3, r2
 8000a56:	61bb      	str	r3, [r7, #24]
 8000a58:	683b      	ldr	r3, [r7, #0]
 8000a5a:	685b      	ldr	r3, [r3, #4]
 8000a5c:	f403 3300 	and.w	r3, r3, #131072	; 0x20000
 8000a60:	2b00      	cmp	r3, #0
 8000a62:	d003      	beq.n	8000a6c <HAL_GPIO_Init+0x294>
 8000a64:	69ba      	ldr	r2, [r7, #24]
 8000a66:	693b      	ldr	r3, [r7, #16]
 8000a68:	4313      	orrs	r3, r2
 8000a6a:	61bb      	str	r3, [r7, #24]
 8000a6c:	4a26      	ldr	r2, [pc, #152]	; (8000b08 <HAL_GPIO_Init+0x330>)
 8000a6e:	69bb      	ldr	r3, [r7, #24]
 8000a70:	6053      	str	r3, [r2, #4]
 8000a72:	4b25      	ldr	r3, [pc, #148]	; (8000b08 <HAL_GPIO_Init+0x330>)
 8000a74:	689b      	ldr	r3, [r3, #8]
 8000a76:	61bb      	str	r3, [r7, #24]
 8000a78:	693b      	ldr	r3, [r7, #16]
 8000a7a:	43db      	mvns	r3, r3
 8000a7c:	69ba      	ldr	r2, [r7, #24]
 8000a7e:	4013      	ands	r3, r2
 8000a80:	61bb      	str	r3, [r7, #24]
 8000a82:	683b      	ldr	r3, [r7, #0]
 8000a84:	685b      	ldr	r3, [r3, #4]
 8000a86:	f403 1380 	and.w	r3, r3, #1048576	; 0x100000
 8000a8a:	2b00      	cmp	r3, #0
 8000a8c:	d003      	beq.n	8000a96 <HAL_GPIO_Init+0x2be>
 8000a8e:	69ba      	ldr	r2, [r7, #24]
 8000a90:	693b      	ldr	r3, [r7, #16]
 8000a92:	4313      	orrs	r3, r2
 8000a94:	61bb      	str	r3, [r7, #24]
 8000a96:	4a1c      	ldr	r2, [pc, #112]	; (8000b08 <HAL_GPIO_Init+0x330>)
 8000a98:	69bb      	ldr	r3, [r7, #24]
 8000a9a:	6093      	str	r3, [r2, #8]
 8000a9c:	4b1a      	ldr	r3, [pc, #104]	; (8000b08 <HAL_GPIO_Init+0x330>)
 8000a9e:	68db      	ldr	r3, [r3, #12]
 8000aa0:	61bb      	str	r3, [r7, #24]
 8000aa2:	693b      	ldr	r3, [r7, #16]
 8000aa4:	43db      	mvns	r3, r3
 8000aa6:	69ba      	ldr	r2, [r7, #24]
 8000aa8:	4013      	ands	r3, r2
 8000aaa:	61bb      	str	r3, [r7, #24]
 8000aac:	683b      	ldr	r3, [r7, #0]
 8000aae:	685b      	ldr	r3, [r3, #4]
 8000ab0:	f403 1300 	and.w	r3, r3, #2097152	; 0x200000
 8000ab4:	2b00      	cmp	r3, #0
 8000ab6:	d003      	beq.n	8000ac0 <HAL_GPIO_Init+0x2e8>
 8000ab8:	69ba      	ldr	r2, [r7, #24]
 8000aba:	693b      	ldr	r3, [r7, #16]
 8000abc:	4313      	orrs	r3, r2
 8000abe:	61bb      	str	r3, [r7, #24]
 8000ac0:	4a11      	ldr	r2, [pc, #68]	; (8000b08 <HAL_GPIO_Init+0x330>)
 8000ac2:	69bb      	ldr	r3, [r7, #24]
 8000ac4:	60d3      	str	r3, [r2, #12]
 8000ac6:	69fb      	ldr	r3, [r7, #28]
 8000ac8:	3301      	adds	r3, #1
 8000aca:	61fb      	str	r3, [r7, #28]
 8000acc:	69fb      	ldr	r3, [r7, #28]
 8000ace:	2b0f      	cmp	r3, #15
 8000ad0:	f67f ae90 	bls.w	80007f4 <HAL_GPIO_Init+0x1c>
 8000ad4:	bf00      	nop
 8000ad6:	3724      	adds	r7, #36	; 0x24
 8000ad8:	46bd      	mov	sp, r7
 8000ada:	f85d 7b04 	ldr.w	r7, [sp], #4
 8000ade:	4770      	bx	lr
 8000ae0:	40023800 	.word	0x40023800
 8000ae4:	40013800 	.word	0x40013800
 8000ae8:	40020000 	.word	0x40020000
 8000aec:	40020400 	.word	0x40020400
 8000af0:	40020800 	.word	0x40020800
 8000af4:	40020c00 	.word	0x40020c00
 8000af8:	40021000 	.word	0x40021000
 8000afc:	40021400 	.word	0x40021400
 8000b00:	40021800 	.word	0x40021800
 8000b04:	40021c00 	.word	0x40021c00
 8000b08:	40013c00 	.word	0x40013c00

08000b0c <HAL_I2C_Init>:
 8000b0c:	b580      	push	{r7, lr}
 8000b0e:	b084      	sub	sp, #16
 8000b10:	af00      	add	r7, sp, #0
 8000b12:	6078      	str	r0, [r7, #4]
 8000b14:	2300      	movs	r3, #0
 8000b16:	60fb      	str	r3, [r7, #12]
 8000b18:	2300      	movs	r3, #0
 8000b1a:	60bb      	str	r3, [r7, #8]
 8000b1c:	687b      	ldr	r3, [r7, #4]
 8000b1e:	2b00      	cmp	r3, #0
 8000b20:	d101      	bne.n	8000b26 <HAL_I2C_Init+0x1a>
 8000b22:	2301      	movs	r3, #1
 8000b24:	e0c8      	b.n	8000cb8 <HAL_I2C_Init+0x1ac>
 8000b26:	687b      	ldr	r3, [r7, #4]
 8000b28:	f893 303d 	ldrb.w	r3, [r3, #61]	; 0x3d
 8000b2c:	b2db      	uxtb	r3, r3
 8000b2e:	2b00      	cmp	r3, #0
 8000b30:	d106      	bne.n	8000b40 <HAL_I2C_Init+0x34>
 8000b32:	687b      	ldr	r3, [r7, #4]
 8000b34:	2200      	movs	r2, #0
 8000b36:	f883 203c 	strb.w	r2, [r3, #60]	; 0x3c
 8000b3a:	6878      	ldr	r0, [r7, #4]
 8000b3c:	f000 f8c6 	bl	8000ccc <HAL_I2C_MspInit>
 8000b40:	687b      	ldr	r3, [r7, #4]
 8000b42:	2224      	movs	r2, #36	; 0x24
 8000b44:	f883 203d 	strb.w	r2, [r3, #61]	; 0x3d
 8000b48:	687b      	ldr	r3, [r7, #4]
 8000b4a:	681b      	ldr	r3, [r3, #0]
 8000b4c:	681a      	ldr	r2, [r3, #0]
 8000b4e:	687b      	ldr	r3, [r7, #4]
 8000b50:	681b      	ldr	r3, [r3, #0]
 8000b52:	f022 0201 	bic.w	r2, r2, #1
 8000b56:	601a      	str	r2, [r3, #0]
 8000b58:	f001 f8f2 	bl	8001d40 <HAL_RCC_GetPCLK1Freq>
 8000b5c:	60b8      	str	r0, [r7, #8]
 8000b5e:	68bb      	ldr	r3, [r7, #8]
 8000b60:	4a57      	ldr	r2, [pc, #348]	; (8000cc0 <HAL_I2C_Init+0x1b4>)
 8000b62:	fba2 2303 	umull	r2, r3, r2, r3
 8000b66:	0c9b      	lsrs	r3, r3, #18
 8000b68:	60fb      	str	r3, [r7, #12]
 8000b6a:	687b      	ldr	r3, [r7, #4]
 8000b6c:	681b      	ldr	r3, [r3, #0]
 8000b6e:	68fa      	ldr	r2, [r7, #12]
 8000b70:	605a      	str	r2, [r3, #4]
 8000b72:	687b      	ldr	r3, [r7, #4]
 8000b74:	685b      	ldr	r3, [r3, #4]
 8000b76:	4a53      	ldr	r2, [pc, #332]	; (8000cc4 <HAL_I2C_Init+0x1b8>)
 8000b78:	4293      	cmp	r3, r2
 8000b7a:	d802      	bhi.n	8000b82 <HAL_I2C_Init+0x76>
 8000b7c:	68fb      	ldr	r3, [r7, #12]
 8000b7e:	3301      	adds	r3, #1
 8000b80:	e009      	b.n	8000b96 <HAL_I2C_Init+0x8a>
 8000b82:	68fb      	ldr	r3, [r7, #12]
 8000b84:	f44f 7296 	mov.w	r2, #300	; 0x12c
 8000b88:	fb02 f303 	mul.w	r3, r2, r3
 8000b8c:	4a4e      	ldr	r2, [pc, #312]	; (8000cc8 <HAL_I2C_Init+0x1bc>)
 8000b8e:	fba2 2303 	umull	r2, r3, r2, r3
 8000b92:	099b      	lsrs	r3, r3, #6
 8000b94:	3301      	adds	r3, #1
 8000b96:	687a      	ldr	r2, [r7, #4]
 8000b98:	6812      	ldr	r2, [r2, #0]
 8000b9a:	6213      	str	r3, [r2, #32]
 8000b9c:	687b      	ldr	r3, [r7, #4]
 8000b9e:	685b      	ldr	r3, [r3, #4]
 8000ba0:	4a48      	ldr	r2, [pc, #288]	; (8000cc4 <HAL_I2C_Init+0x1b8>)
 8000ba2:	4293      	cmp	r3, r2
 8000ba4:	d812      	bhi.n	8000bcc <HAL_I2C_Init+0xc0>
 8000ba6:	687b      	ldr	r3, [r7, #4]
 8000ba8:	685b      	ldr	r3, [r3, #4]
 8000baa:	005b      	lsls	r3, r3, #1
 8000bac:	68ba      	ldr	r2, [r7, #8]
 8000bae:	fbb2 f3f3 	udiv	r3, r2, r3
 8000bb2:	f3c3 030b 	ubfx	r3, r3, #0, #12
 8000bb6:	2b03      	cmp	r3, #3
 8000bb8:	d906      	bls.n	8000bc8 <HAL_I2C_Init+0xbc>
 8000bba:	687b      	ldr	r3, [r7, #4]
 8000bbc:	685b      	ldr	r3, [r3, #4]
 8000bbe:	005b      	lsls	r3, r3, #1
 8000bc0:	68ba      	ldr	r2, [r7, #8]
 8000bc2:	fbb2 f3f3 	udiv	r3, r2, r3
 8000bc6:	e045      	b.n	8000c54 <HAL_I2C_Init+0x148>
 8000bc8:	2304      	movs	r3, #4
 8000bca:	e043      	b.n	8000c54 <HAL_I2C_Init+0x148>
 8000bcc:	687b      	ldr	r3, [r7, #4]
 8000bce:	689b      	ldr	r3, [r3, #8]
 8000bd0:	2b00      	cmp	r3, #0
 8000bd2:	d10f      	bne.n	8000bf4 <HAL_I2C_Init+0xe8>
 8000bd4:	687b      	ldr	r3, [r7, #4]
 8000bd6:	685a      	ldr	r2, [r3, #4]
 8000bd8:	4613      	mov	r3, r2
 8000bda:	005b      	lsls	r3, r3, #1
 8000bdc:	4413      	add	r3, r2
 8000bde:	68ba      	ldr	r2, [r7, #8]
 8000be0:	fbb2 f3f3 	udiv	r3, r2, r3
 8000be4:	f3c3 030b 	ubfx	r3, r3, #0, #12
 8000be8:	2b00      	cmp	r3, #0
 8000bea:	bf0c      	ite	eq
 8000bec:	2301      	moveq	r3, #1
 8000bee:	2300      	movne	r3, #0
 8000bf0:	b2db      	uxtb	r3, r3
 8000bf2:	e010      	b.n	8000c16 <HAL_I2C_Init+0x10a>
 8000bf4:	687b      	ldr	r3, [r7, #4]
 8000bf6:	685a      	ldr	r2, [r3, #4]
 8000bf8:	4613      	mov	r3, r2
 8000bfa:	009b      	lsls	r3, r3, #2
 8000bfc:	4413      	add	r3, r2
 8000bfe:	009a      	lsls	r2, r3, #2
 8000c00:	4413      	add	r3, r2
 8000c02:	68ba      	ldr	r2, [r7, #8]
 8000c04:	fbb2 f3f3 	udiv	r3, r2, r3
 8000c08:	f3c3 030b 	ubfx	r3, r3, #0, #12
 8000c0c:	2b00      	cmp	r3, #0
 8000c0e:	bf0c      	ite	eq
 8000c10:	2301      	moveq	r3, #1
 8000c12:	2300      	movne	r3, #0
 8000c14:	b2db      	uxtb	r3, r3
 8000c16:	2b00      	cmp	r3, #0
 8000c18:	d001      	beq.n	8000c1e <HAL_I2C_Init+0x112>
 8000c1a:	2301      	movs	r3, #1
 8000c1c:	e01a      	b.n	8000c54 <HAL_I2C_Init+0x148>
 8000c1e:	687b      	ldr	r3, [r7, #4]
 8000c20:	689b      	ldr	r3, [r3, #8]
 8000c22:	2b00      	cmp	r3, #0
 8000c24:	d10a      	bne.n	8000c3c <HAL_I2C_Init+0x130>
 8000c26:	687b      	ldr	r3, [r7, #4]
 8000c28:	685a      	ldr	r2, [r3, #4]
 8000c2a:	4613      	mov	r3, r2
 8000c2c:	005b      	lsls	r3, r3, #1
 8000c2e:	4413      	add	r3, r2
 8000c30:	68ba      	ldr	r2, [r7, #8]
 8000c32:	fbb2 f3f3 	udiv	r3, r2, r3
 8000c36:	f443 4300 	orr.w	r3, r3, #32768	; 0x8000
 8000c3a:	e00b      	b.n	8000c54 <HAL_I2C_Init+0x148>
 8000c3c:	687b      	ldr	r3, [r7, #4]
 8000c3e:	685a      	ldr	r2, [r3, #4]
 8000c40:	4613      	mov	r3, r2
 8000c42:	009b      	lsls	r3, r3, #2
 8000c44:	4413      	add	r3, r2
 8000c46:	009a      	lsls	r2, r3, #2
 8000c48:	4413      	add	r3, r2
 8000c4a:	68ba      	ldr	r2, [r7, #8]
 8000c4c:	fbb2 f3f3 	udiv	r3, r2, r3
 8000c50:	f443 4340 	orr.w	r3, r3, #49152	; 0xc000
 8000c54:	687a      	ldr	r2, [r7, #4]
 8000c56:	6812      	ldr	r2, [r2, #0]
 8000c58:	61d3      	str	r3, [r2, #28]
 8000c5a:	687b      	ldr	r3, [r7, #4]
 8000c5c:	69d9      	ldr	r1, [r3, #28]
 8000c5e:	687b      	ldr	r3, [r7, #4]
 8000c60:	6a1a      	ldr	r2, [r3, #32]
 8000c62:	687b      	ldr	r3, [r7, #4]
 8000c64:	681b      	ldr	r3, [r3, #0]
 8000c66:	430a      	orrs	r2, r1
 8000c68:	601a      	str	r2, [r3, #0]
 8000c6a:	687b      	ldr	r3, [r7, #4]
 8000c6c:	6919      	ldr	r1, [r3, #16]
 8000c6e:	687b      	ldr	r3, [r7, #4]
 8000c70:	68da      	ldr	r2, [r3, #12]
 8000c72:	687b      	ldr	r3, [r7, #4]
 8000c74:	681b      	ldr	r3, [r3, #0]
 8000c76:	430a      	orrs	r2, r1
 8000c78:	609a      	str	r2, [r3, #8]
 8000c7a:	687b      	ldr	r3, [r7, #4]
 8000c7c:	6959      	ldr	r1, [r3, #20]
 8000c7e:	687b      	ldr	r3, [r7, #4]
 8000c80:	699a      	ldr	r2, [r3, #24]
 8000c82:	687b      	ldr	r3, [r7, #4]
 8000c84:	681b      	ldr	r3, [r3, #0]
 8000c86:	430a      	orrs	r2, r1
 8000c88:	60da      	str	r2, [r3, #12]
 8000c8a:	687b      	ldr	r3, [r7, #4]
 8000c8c:	681b      	ldr	r3, [r3, #0]
 8000c8e:	681a      	ldr	r2, [r3, #0]
 8000c90:	687b      	ldr	r3, [r7, #4]
 8000c92:	681b      	ldr	r3, [r3, #0]
 8000c94:	f042 0201 	orr.w	r2, r2, #1
 8000c98:	601a      	str	r2, [r3, #0]
 8000c9a:	687b      	ldr	r3, [r7, #4]
 8000c9c:	2200      	movs	r2, #0
 8000c9e:	641a      	str	r2, [r3, #64]	; 0x40
 8000ca0:	687b      	ldr	r3, [r7, #4]
 8000ca2:	2220      	movs	r2, #32
 8000ca4:	f883 203d 	strb.w	r2, [r3, #61]	; 0x3d
 8000ca8:	687b      	ldr	r3, [r7, #4]
 8000caa:	2200      	movs	r2, #0
 8000cac:	631a      	str	r2, [r3, #48]	; 0x30
 8000cae:	687b      	ldr	r3, [r7, #4]
 8000cb0:	2200      	movs	r2, #0
 8000cb2:	f883 203e 	strb.w	r2, [r3, #62]	; 0x3e
 8000cb6:	2300      	movs	r3, #0
 8000cb8:	4618      	mov	r0, r3
 8000cba:	3710      	adds	r7, #16
 8000cbc:	46bd      	mov	sp, r7
 8000cbe:	bd80      	pop	{r7, pc}
 8000cc0:	431bde83 	.word	0x431bde83
 8000cc4:	000186a0 	.word	0x000186a0
 8000cc8:	10624dd3 	.word	0x10624dd3

08000ccc <HAL_I2C_MspInit>:
 8000ccc:	b480      	push	{r7}
 8000cce:	b083      	sub	sp, #12
 8000cd0:	af00      	add	r7, sp, #0
 8000cd2:	6078      	str	r0, [r7, #4]
 8000cd4:	bf00      	nop
 8000cd6:	370c      	adds	r7, #12
 8000cd8:	46bd      	mov	sp, r7
 8000cda:	f85d 7b04 	ldr.w	r7, [sp], #4
 8000cde:	4770      	bx	lr

08000ce0 <HAL_I2C_Master_Transmit>:
 8000ce0:	b580      	push	{r7, lr}
 8000ce2:	b088      	sub	sp, #32
 8000ce4:	af02      	add	r7, sp, #8
 8000ce6:	60f8      	str	r0, [r7, #12]
 8000ce8:	607a      	str	r2, [r7, #4]
 8000cea:	461a      	mov	r2, r3
 8000cec:	460b      	mov	r3, r1
 8000cee:	817b      	strh	r3, [r7, #10]
 8000cf0:	4613      	mov	r3, r2
 8000cf2:	813b      	strh	r3, [r7, #8]
 8000cf4:	2300      	movs	r3, #0
 8000cf6:	617b      	str	r3, [r7, #20]
 8000cf8:	f7ff fc4e 	bl	8000598 <HAL_GetTick>
 8000cfc:	6178      	str	r0, [r7, #20]
 8000cfe:	68fb      	ldr	r3, [r7, #12]
 8000d00:	f893 303d 	ldrb.w	r3, [r3, #61]	; 0x3d
 8000d04:	b2db      	uxtb	r3, r3
 8000d06:	2b20      	cmp	r3, #32
 8000d08:	f040 80ee 	bne.w	8000ee8 <HAL_I2C_Master_Transmit+0x208>
 8000d0c:	697b      	ldr	r3, [r7, #20]
 8000d0e:	9300      	str	r3, [sp, #0]
 8000d10:	2319      	movs	r3, #25
 8000d12:	2201      	movs	r2, #1
 8000d14:	4977      	ldr	r1, [pc, #476]	; (8000ef4 <HAL_I2C_Master_Transmit+0x214>)
 8000d16:	68f8      	ldr	r0, [r7, #12]
 8000d18:	f000 faa2 	bl	8001260 <I2C_WaitOnFlagUntilTimeout>
 8000d1c:	4603      	mov	r3, r0
 8000d1e:	2b00      	cmp	r3, #0
 8000d20:	d001      	beq.n	8000d26 <HAL_I2C_Master_Transmit+0x46>
 8000d22:	2302      	movs	r3, #2
 8000d24:	e0e1      	b.n	8000eea <HAL_I2C_Master_Transmit+0x20a>
 8000d26:	68fb      	ldr	r3, [r7, #12]
 8000d28:	f893 303c 	ldrb.w	r3, [r3, #60]	; 0x3c
 8000d2c:	2b01      	cmp	r3, #1
 8000d2e:	d101      	bne.n	8000d34 <HAL_I2C_Master_Transmit+0x54>
 8000d30:	2302      	movs	r3, #2
 8000d32:	e0da      	b.n	8000eea <HAL_I2C_Master_Transmit+0x20a>
 8000d34:	68fb      	ldr	r3, [r7, #12]
 8000d36:	2201      	movs	r2, #1
 8000d38:	f883 203c 	strb.w	r2, [r3, #60]	; 0x3c
 8000d3c:	68fb      	ldr	r3, [r7, #12]
 8000d3e:	681b      	ldr	r3, [r3, #0]
 8000d40:	681b      	ldr	r3, [r3, #0]
 8000d42:	f003 0301 	and.w	r3, r3, #1
 8000d46:	2b01      	cmp	r3, #1
 8000d48:	d007      	beq.n	8000d5a <HAL_I2C_Master_Transmit+0x7a>
 8000d4a:	68fb      	ldr	r3, [r7, #12]
 8000d4c:	681b      	ldr	r3, [r3, #0]
 8000d4e:	681a      	ldr	r2, [r3, #0]
 8000d50:	68fb      	ldr	r3, [r7, #12]
 8000d52:	681b      	ldr	r3, [r3, #0]
 8000d54:	f042 0201 	orr.w	r2, r2, #1
 8000d58:	601a      	str	r2, [r3, #0]
 8000d5a:	68fb      	ldr	r3, [r7, #12]
 8000d5c:	681b      	ldr	r3, [r3, #0]
 8000d5e:	681a      	ldr	r2, [r3, #0]
 8000d60:	68fb      	ldr	r3, [r7, #12]
 8000d62:	681b      	ldr	r3, [r3, #0]
 8000d64:	f422 6200 	bic.w	r2, r2, #2048	; 0x800
 8000d68:	601a      	str	r2, [r3, #0]
 8000d6a:	68fb      	ldr	r3, [r7, #12]
 8000d6c:	2221      	movs	r2, #33	; 0x21
 8000d6e:	f883 203d 	strb.w	r2, [r3, #61]	; 0x3d
 8000d72:	68fb      	ldr	r3, [r7, #12]
 8000d74:	2210      	movs	r2, #16
 8000d76:	f883 203e 	strb.w	r2, [r3, #62]	; 0x3e
 8000d7a:	68fb      	ldr	r3, [r7, #12]
 8000d7c:	2200      	movs	r2, #0
 8000d7e:	641a      	str	r2, [r3, #64]	; 0x40
 8000d80:	68fb      	ldr	r3, [r7, #12]
 8000d82:	687a      	ldr	r2, [r7, #4]
 8000d84:	625a      	str	r2, [r3, #36]	; 0x24
 8000d86:	68fb      	ldr	r3, [r7, #12]
 8000d88:	893a      	ldrh	r2, [r7, #8]
 8000d8a:	855a      	strh	r2, [r3, #42]	; 0x2a
 8000d8c:	68fb      	ldr	r3, [r7, #12]
 8000d8e:	4a5a      	ldr	r2, [pc, #360]	; (8000ef8 <HAL_I2C_Master_Transmit+0x218>)
 8000d90:	62da      	str	r2, [r3, #44]	; 0x2c
 8000d92:	68fb      	ldr	r3, [r7, #12]
 8000d94:	8d5b      	ldrh	r3, [r3, #42]	; 0x2a
 8000d96:	b29a      	uxth	r2, r3
 8000d98:	68fb      	ldr	r3, [r7, #12]
 8000d9a:	851a      	strh	r2, [r3, #40]	; 0x28
 8000d9c:	8979      	ldrh	r1, [r7, #10]
 8000d9e:	697b      	ldr	r3, [r7, #20]
 8000da0:	6a3a      	ldr	r2, [r7, #32]
 8000da2:	68f8      	ldr	r0, [r7, #12]
 8000da4:	f000 f9da 	bl	800115c <I2C_MasterRequestWrite>
 8000da8:	4603      	mov	r3, r0
 8000daa:	2b00      	cmp	r3, #0
 8000dac:	d00f      	beq.n	8000dce <HAL_I2C_Master_Transmit+0xee>
 8000dae:	68fb      	ldr	r3, [r7, #12]
 8000db0:	6c1b      	ldr	r3, [r3, #64]	; 0x40
 8000db2:	2b04      	cmp	r3, #4
 8000db4:	d105      	bne.n	8000dc2 <HAL_I2C_Master_Transmit+0xe2>
 8000db6:	68fb      	ldr	r3, [r7, #12]
 8000db8:	2200      	movs	r2, #0
 8000dba:	f883 203c 	strb.w	r2, [r3, #60]	; 0x3c
 8000dbe:	2301      	movs	r3, #1
 8000dc0:	e093      	b.n	8000eea <HAL_I2C_Master_Transmit+0x20a>
 8000dc2:	68fb      	ldr	r3, [r7, #12]
 8000dc4:	2200      	movs	r2, #0
 8000dc6:	f883 203c 	strb.w	r2, [r3, #60]	; 0x3c
 8000dca:	2303      	movs	r3, #3
 8000dcc:	e08d      	b.n	8000eea <HAL_I2C_Master_Transmit+0x20a>
 8000dce:	2300      	movs	r3, #0
 8000dd0:	613b      	str	r3, [r7, #16]
 8000dd2:	68fb      	ldr	r3, [r7, #12]
 8000dd4:	681b      	ldr	r3, [r3, #0]
 8000dd6:	695b      	ldr	r3, [r3, #20]
 8000dd8:	613b      	str	r3, [r7, #16]
 8000dda:	68fb      	ldr	r3, [r7, #12]
 8000ddc:	681b      	ldr	r3, [r3, #0]
 8000dde:	699b      	ldr	r3, [r3, #24]
 8000de0:	613b      	str	r3, [r7, #16]
 8000de2:	693b      	ldr	r3, [r7, #16]
 8000de4:	e066      	b.n	8000eb4 <HAL_I2C_Master_Transmit+0x1d4>
 8000de6:	697a      	ldr	r2, [r7, #20]
 8000de8:	6a39      	ldr	r1, [r7, #32]
 8000dea:	68f8      	ldr	r0, [r7, #12]
 8000dec:	f000 faf7 	bl	80013de <I2C_WaitOnTXEFlagUntilTimeout>
 8000df0:	4603      	mov	r3, r0
 8000df2:	2b00      	cmp	r3, #0
 8000df4:	d00f      	beq.n	8000e16 <HAL_I2C_Master_Transmit+0x136>
 8000df6:	68fb      	ldr	r3, [r7, #12]
 8000df8:	6c1b      	ldr	r3, [r3, #64]	; 0x40
 8000dfa:	2b04      	cmp	r3, #4
 8000dfc:	d109      	bne.n	8000e12 <HAL_I2C_Master_Transmit+0x132>
 8000dfe:	68fb      	ldr	r3, [r7, #12]
 8000e00:	681b      	ldr	r3, [r3, #0]
 8000e02:	681a      	ldr	r2, [r3, #0]
 8000e04:	68fb      	ldr	r3, [r7, #12]
 8000e06:	681b      	ldr	r3, [r3, #0]
 8000e08:	f442 7200 	orr.w	r2, r2, #512	; 0x200
 8000e0c:	601a      	str	r2, [r3, #0]
 8000e0e:	2301      	movs	r3, #1
 8000e10:	e06b      	b.n	8000eea <HAL_I2C_Master_Transmit+0x20a>
 8000e12:	2303      	movs	r3, #3
 8000e14:	e069      	b.n	8000eea <HAL_I2C_Master_Transmit+0x20a>
 8000e16:	68fb      	ldr	r3, [r7, #12]
 8000e18:	6a5b      	ldr	r3, [r3, #36]	; 0x24
 8000e1a:	1c59      	adds	r1, r3, #1
 8000e1c:	68fa      	ldr	r2, [r7, #12]
 8000e1e:	6251      	str	r1, [r2, #36]	; 0x24
 8000e20:	781a      	ldrb	r2, [r3, #0]
 8000e22:	68fb      	ldr	r3, [r7, #12]
 8000e24:	681b      	ldr	r3, [r3, #0]
 8000e26:	611a      	str	r2, [r3, #16]
 8000e28:	68fb      	ldr	r3, [r7, #12]
 8000e2a:	8d5b      	ldrh	r3, [r3, #42]	; 0x2a
 8000e2c:	b29b      	uxth	r3, r3
 8000e2e:	3b01      	subs	r3, #1
 8000e30:	b29a      	uxth	r2, r3
 8000e32:	68fb      	ldr	r3, [r7, #12]
 8000e34:	855a      	strh	r2, [r3, #42]	; 0x2a
 8000e36:	68fb      	ldr	r3, [r7, #12]
 8000e38:	8d1b      	ldrh	r3, [r3, #40]	; 0x28
 8000e3a:	3b01      	subs	r3, #1
 8000e3c:	b29a      	uxth	r2, r3
 8000e3e:	68fb      	ldr	r3, [r7, #12]
 8000e40:	851a      	strh	r2, [r3, #40]	; 0x28
 8000e42:	68fb      	ldr	r3, [r7, #12]
 8000e44:	681b      	ldr	r3, [r3, #0]
 8000e46:	695b      	ldr	r3, [r3, #20]
 8000e48:	f003 0304 	and.w	r3, r3, #4
 8000e4c:	2b04      	cmp	r3, #4
 8000e4e:	d119      	bne.n	8000e84 <HAL_I2C_Master_Transmit+0x1a4>
 8000e50:	68fb      	ldr	r3, [r7, #12]
 8000e52:	8d1b      	ldrh	r3, [r3, #40]	; 0x28
 8000e54:	2b00      	cmp	r3, #0
 8000e56:	d015      	beq.n	8000e84 <HAL_I2C_Master_Transmit+0x1a4>
 8000e58:	68fb      	ldr	r3, [r7, #12]
 8000e5a:	6a5b      	ldr	r3, [r3, #36]	; 0x24
 8000e5c:	1c59      	adds	r1, r3, #1
 8000e5e:	68fa      	ldr	r2, [r7, #12]
 8000e60:	6251      	str	r1, [r2, #36]	; 0x24
 8000e62:	781a      	ldrb	r2, [r3, #0]
 8000e64:	68fb      	ldr	r3, [r7, #12]
 8000e66:	681b      	ldr	r3, [r3, #0]
 8000e68:	611a      	str	r2, [r3, #16]
 8000e6a:	68fb      	ldr	r3, [r7, #12]
 8000e6c:	8d5b      	ldrh	r3, [r3, #42]	; 0x2a
 8000e6e:	b29b      	uxth	r3, r3
 8000e70:	3b01      	subs	r3, #1
 8000e72:	b29a      	uxth	r2, r3
 8000e74:	68fb      	ldr	r3, [r7, #12]
 8000e76:	855a      	strh	r2, [r3, #42]	; 0x2a
 8000e78:	68fb      	ldr	r3, [r7, #12]
 8000e7a:	8d1b      	ldrh	r3, [r3, #40]	; 0x28
 8000e7c:	3b01      	subs	r3, #1
 8000e7e:	b29a      	uxth	r2, r3
 8000e80:	68fb      	ldr	r3, [r7, #12]
 8000e82:	851a      	strh	r2, [r3, #40]	; 0x28
 8000e84:	697a      	ldr	r2, [r7, #20]
 8000e86:	6a39      	ldr	r1, [r7, #32]
 8000e88:	68f8      	ldr	r0, [r7, #12]
 8000e8a:	f000 fae5 	bl	8001458 <I2C_WaitOnBTFFlagUntilTimeout>
 8000e8e:	4603      	mov	r3, r0
 8000e90:	2b00      	cmp	r3, #0
 8000e92:	d00f      	beq.n	8000eb4 <HAL_I2C_Master_Transmit+0x1d4>
 8000e94:	68fb      	ldr	r3, [r7, #12]
 8000e96:	6c1b      	ldr	r3, [r3, #64]	; 0x40
 8000e98:	2b04      	cmp	r3, #4
 8000e9a:	d109      	bne.n	8000eb0 <HAL_I2C_Master_Transmit+0x1d0>
 8000e9c:	68fb      	ldr	r3, [r7, #12]
 8000e9e:	681b      	ldr	r3, [r3, #0]
 8000ea0:	681a      	ldr	r2, [r3, #0]
 8000ea2:	68fb      	ldr	r3, [r7, #12]
 8000ea4:	681b      	ldr	r3, [r3, #0]
 8000ea6:	f442 7200 	orr.w	r2, r2, #512	; 0x200
 8000eaa:	601a      	str	r2, [r3, #0]
 8000eac:	2301      	movs	r3, #1
 8000eae:	e01c      	b.n	8000eea <HAL_I2C_Master_Transmit+0x20a>
 8000eb0:	2303      	movs	r3, #3
 8000eb2:	e01a      	b.n	8000eea <HAL_I2C_Master_Transmit+0x20a>
 8000eb4:	68fb      	ldr	r3, [r7, #12]
 8000eb6:	8d1b      	ldrh	r3, [r3, #40]	; 0x28
 8000eb8:	2b00      	cmp	r3, #0
 8000eba:	d194      	bne.n	8000de6 <HAL_I2C_Master_Transmit+0x106>
 8000ebc:	68fb      	ldr	r3, [r7, #12]
 8000ebe:	681b      	ldr	r3, [r3, #0]
 8000ec0:	681a      	ldr	r2, [r3, #0]
 8000ec2:	68fb      	ldr	r3, [r7, #12]
 8000ec4:	681b      	ldr	r3, [r3, #0]
 8000ec6:	f442 7200 	orr.w	r2, r2, #512	; 0x200
 8000eca:	601a      	str	r2, [r3, #0]
 8000ecc:	68fb      	ldr	r3, [r7, #12]
 8000ece:	2220      	movs	r2, #32
 8000ed0:	f883 203d 	strb.w	r2, [r3, #61]	; 0x3d
 8000ed4:	68fb      	ldr	r3, [r7, #12]
 8000ed6:	2200      	movs	r2, #0
 8000ed8:	f883 203e 	strb.w	r2, [r3, #62]	; 0x3e
 8000edc:	68fb      	ldr	r3, [r7, #12]
 8000ede:	2200      	movs	r2, #0
 8000ee0:	f883 203c 	strb.w	r2, [r3, #60]	; 0x3c
 8000ee4:	2300      	movs	r3, #0
 8000ee6:	e000      	b.n	8000eea <HAL_I2C_Master_Transmit+0x20a>
 8000ee8:	2302      	movs	r3, #2
 8000eea:	4618      	mov	r0, r3
 8000eec:	3718      	adds	r7, #24
 8000eee:	46bd      	mov	sp, r7
 8000ef0:	bd80      	pop	{r7, pc}
 8000ef2:	bf00      	nop
 8000ef4:	00100002 	.word	0x00100002
 8000ef8:	ffff0000 	.word	0xffff0000

08000efc <HAL_I2C_IsDeviceReady>:
 8000efc:	b580      	push	{r7, lr}
 8000efe:	b08c      	sub	sp, #48	; 0x30
 8000f00:	af02      	add	r7, sp, #8
 8000f02:	60f8      	str	r0, [r7, #12]
 8000f04:	607a      	str	r2, [r7, #4]
 8000f06:	603b      	str	r3, [r7, #0]
 8000f08:	460b      	mov	r3, r1
 8000f0a:	817b      	strh	r3, [r7, #10]
 8000f0c:	2300      	movs	r3, #0
 8000f0e:	627b      	str	r3, [r7, #36]	; 0x24
 8000f10:	2300      	movs	r3, #0
 8000f12:	623b      	str	r3, [r7, #32]
 8000f14:	2300      	movs	r3, #0
 8000f16:	61fb      	str	r3, [r7, #28]
 8000f18:	2300      	movs	r3, #0
 8000f1a:	61bb      	str	r3, [r7, #24]
 8000f1c:	2301      	movs	r3, #1
 8000f1e:	617b      	str	r3, [r7, #20]
 8000f20:	f7ff fb3a 	bl	8000598 <HAL_GetTick>
 8000f24:	6278      	str	r0, [r7, #36]	; 0x24
 8000f26:	68fb      	ldr	r3, [r7, #12]
 8000f28:	f893 303d 	ldrb.w	r3, [r3, #61]	; 0x3d
 8000f2c:	b2db      	uxtb	r3, r3
 8000f2e:	2b20      	cmp	r3, #32
 8000f30:	f040 810b 	bne.w	800114a <HAL_I2C_IsDeviceReady+0x24e>
 8000f34:	6a7b      	ldr	r3, [r7, #36]	; 0x24
 8000f36:	9300      	str	r3, [sp, #0]
 8000f38:	2319      	movs	r3, #25
 8000f3a:	2201      	movs	r2, #1
 8000f3c:	4985      	ldr	r1, [pc, #532]	; (8001154 <HAL_I2C_IsDeviceReady+0x258>)
 8000f3e:	68f8      	ldr	r0, [r7, #12]
 8000f40:	f000 f98e 	bl	8001260 <I2C_WaitOnFlagUntilTimeout>
 8000f44:	4603      	mov	r3, r0
 8000f46:	2b00      	cmp	r3, #0
 8000f48:	d001      	beq.n	8000f4e <HAL_I2C_IsDeviceReady+0x52>
 8000f4a:	2302      	movs	r3, #2
 8000f4c:	e0fe      	b.n	800114c <HAL_I2C_IsDeviceReady+0x250>
 8000f4e:	68fb      	ldr	r3, [r7, #12]
 8000f50:	f893 303c 	ldrb.w	r3, [r3, #60]	; 0x3c
 8000f54:	2b01      	cmp	r3, #1
 8000f56:	d101      	bne.n	8000f5c <HAL_I2C_IsDeviceReady+0x60>
 8000f58:	2302      	movs	r3, #2
 8000f5a:	e0f7      	b.n	800114c <HAL_I2C_IsDeviceReady+0x250>
 8000f5c:	68fb      	ldr	r3, [r7, #12]
 8000f5e:	2201      	movs	r2, #1
 8000f60:	f883 203c 	strb.w	r2, [r3, #60]	; 0x3c
 8000f64:	68fb      	ldr	r3, [r7, #12]
 8000f66:	681b      	ldr	r3, [r3, #0]
 8000f68:	681b      	ldr	r3, [r3, #0]
 8000f6a:	f003 0301 	and.w	r3, r3, #1
 8000f6e:	2b01      	cmp	r3, #1
 8000f70:	d007      	beq.n	8000f82 <HAL_I2C_IsDeviceReady+0x86>
 8000f72:	68fb      	ldr	r3, [r7, #12]
 8000f74:	681b      	ldr	r3, [r3, #0]
 8000f76:	681a      	ldr	r2, [r3, #0]
 8000f78:	68fb      	ldr	r3, [r7, #12]
 8000f7a:	681b      	ldr	r3, [r3, #0]
 8000f7c:	f042 0201 	orr.w	r2, r2, #1
 8000f80:	601a      	str	r2, [r3, #0]
 8000f82:	68fb      	ldr	r3, [r7, #12]
 8000f84:	681b      	ldr	r3, [r3, #0]
 8000f86:	681a      	ldr	r2, [r3, #0]
 8000f88:	68fb      	ldr	r3, [r7, #12]
 8000f8a:	681b      	ldr	r3, [r3, #0]
 8000f8c:	f422 6200 	bic.w	r2, r2, #2048	; 0x800
 8000f90:	601a      	str	r2, [r3, #0]
 8000f92:	68fb      	ldr	r3, [r7, #12]
 8000f94:	2224      	movs	r2, #36	; 0x24
 8000f96:	f883 203d 	strb.w	r2, [r3, #61]	; 0x3d
 8000f9a:	68fb      	ldr	r3, [r7, #12]
 8000f9c:	2200      	movs	r2, #0
 8000f9e:	641a      	str	r2, [r3, #64]	; 0x40
 8000fa0:	68fb      	ldr	r3, [r7, #12]
 8000fa2:	4a6d      	ldr	r2, [pc, #436]	; (8001158 <HAL_I2C_IsDeviceReady+0x25c>)
 8000fa4:	62da      	str	r2, [r3, #44]	; 0x2c
 8000fa6:	68fb      	ldr	r3, [r7, #12]
 8000fa8:	681b      	ldr	r3, [r3, #0]
 8000faa:	681a      	ldr	r2, [r3, #0]
 8000fac:	68fb      	ldr	r3, [r7, #12]
 8000fae:	681b      	ldr	r3, [r3, #0]
 8000fb0:	f442 7280 	orr.w	r2, r2, #256	; 0x100
 8000fb4:	601a      	str	r2, [r3, #0]
 8000fb6:	6a7b      	ldr	r3, [r7, #36]	; 0x24
 8000fb8:	9300      	str	r3, [sp, #0]
 8000fba:	683b      	ldr	r3, [r7, #0]
 8000fbc:	2200      	movs	r2, #0
 8000fbe:	f04f 1101 	mov.w	r1, #65537	; 0x10001
 8000fc2:	68f8      	ldr	r0, [r7, #12]
 8000fc4:	f000 f94c 	bl	8001260 <I2C_WaitOnFlagUntilTimeout>
 8000fc8:	4603      	mov	r3, r0
 8000fca:	2b00      	cmp	r3, #0
 8000fcc:	d001      	beq.n	8000fd2 <HAL_I2C_IsDeviceReady+0xd6>
 8000fce:	2303      	movs	r3, #3
 8000fd0:	e0bc      	b.n	800114c <HAL_I2C_IsDeviceReady+0x250>
 8000fd2:	897b      	ldrh	r3, [r7, #10]
 8000fd4:	b2db      	uxtb	r3, r3
 8000fd6:	461a      	mov	r2, r3
 8000fd8:	68fb      	ldr	r3, [r7, #12]
 8000fda:	681b      	ldr	r3, [r3, #0]
 8000fdc:	f002 02fe 	and.w	r2, r2, #254	; 0xfe
 8000fe0:	611a      	str	r2, [r3, #16]
 8000fe2:	f7ff fad9 	bl	8000598 <HAL_GetTick>
 8000fe6:	6278      	str	r0, [r7, #36]	; 0x24
 8000fe8:	68fb      	ldr	r3, [r7, #12]
 8000fea:	681b      	ldr	r3, [r3, #0]
 8000fec:	695b      	ldr	r3, [r3, #20]
 8000fee:	f003 0302 	and.w	r3, r3, #2
 8000ff2:	2b02      	cmp	r3, #2
 8000ff4:	bf0c      	ite	eq
 8000ff6:	2301      	moveq	r3, #1
 8000ff8:	2300      	movne	r3, #0
 8000ffa:	b2db      	uxtb	r3, r3
 8000ffc:	623b      	str	r3, [r7, #32]
 8000ffe:	68fb      	ldr	r3, [r7, #12]
 8001000:	681b      	ldr	r3, [r3, #0]
 8001002:	695b      	ldr	r3, [r3, #20]
 8001004:	f403 6380 	and.w	r3, r3, #1024	; 0x400
 8001008:	f5b3 6f80 	cmp.w	r3, #1024	; 0x400
 800100c:	bf0c      	ite	eq
 800100e:	2301      	moveq	r3, #1
 8001010:	2300      	movne	r3, #0
 8001012:	b2db      	uxtb	r3, r3
 8001014:	61fb      	str	r3, [r7, #28]
 8001016:	68fb      	ldr	r3, [r7, #12]
 8001018:	f893 303d 	ldrb.w	r3, [r3, #61]	; 0x3d
 800101c:	b2db      	uxtb	r3, r3
 800101e:	61bb      	str	r3, [r7, #24]
 8001020:	e02a      	b.n	8001078 <HAL_I2C_IsDeviceReady+0x17c>
 8001022:	683b      	ldr	r3, [r7, #0]
 8001024:	2b00      	cmp	r3, #0
 8001026:	d007      	beq.n	8001038 <HAL_I2C_IsDeviceReady+0x13c>
 8001028:	f7ff fab6 	bl	8000598 <HAL_GetTick>
 800102c:	4602      	mov	r2, r0
 800102e:	6a7b      	ldr	r3, [r7, #36]	; 0x24
 8001030:	1ad3      	subs	r3, r2, r3
 8001032:	683a      	ldr	r2, [r7, #0]
 8001034:	429a      	cmp	r2, r3
 8001036:	d203      	bcs.n	8001040 <HAL_I2C_IsDeviceReady+0x144>
 8001038:	68fb      	ldr	r3, [r7, #12]
 800103a:	22a0      	movs	r2, #160	; 0xa0
 800103c:	f883 203d 	strb.w	r2, [r3, #61]	; 0x3d
 8001040:	68fb      	ldr	r3, [r7, #12]
 8001042:	681b      	ldr	r3, [r3, #0]
 8001044:	695b      	ldr	r3, [r3, #20]
 8001046:	f003 0302 	and.w	r3, r3, #2
 800104a:	2b02      	cmp	r3, #2
 800104c:	bf0c      	ite	eq
 800104e:	2301      	moveq	r3, #1
 8001050:	2300      	movne	r3, #0
 8001052:	b2db      	uxtb	r3, r3
 8001054:	623b      	str	r3, [r7, #32]
 8001056:	68fb      	ldr	r3, [r7, #12]
 8001058:	681b      	ldr	r3, [r3, #0]
 800105a:	695b      	ldr	r3, [r3, #20]
 800105c:	f403 6380 	and.w	r3, r3, #1024	; 0x400
 8001060:	f5b3 6f80 	cmp.w	r3, #1024	; 0x400
 8001064:	bf0c      	ite	eq
 8001066:	2301      	moveq	r3, #1
 8001068:	2300      	movne	r3, #0
 800106a:	b2db      	uxtb	r3, r3
 800106c:	61fb      	str	r3, [r7, #28]
 800106e:	68fb      	ldr	r3, [r7, #12]
 8001070:	f893 303d 	ldrb.w	r3, [r3, #61]	; 0x3d
 8001074:	b2db      	uxtb	r3, r3
 8001076:	61bb      	str	r3, [r7, #24]
 8001078:	6a3b      	ldr	r3, [r7, #32]
 800107a:	2b00      	cmp	r3, #0
 800107c:	d105      	bne.n	800108a <HAL_I2C_IsDeviceReady+0x18e>
 800107e:	69fb      	ldr	r3, [r7, #28]
 8001080:	2b00      	cmp	r3, #0
 8001082:	d102      	bne.n	800108a <HAL_I2C_IsDeviceReady+0x18e>
 8001084:	69bb      	ldr	r3, [r7, #24]
 8001086:	2ba0      	cmp	r3, #160	; 0xa0
 8001088:	d1cb      	bne.n	8001022 <HAL_I2C_IsDeviceReady+0x126>
 800108a:	68fb      	ldr	r3, [r7, #12]
 800108c:	2220      	movs	r2, #32
 800108e:	f883 203d 	strb.w	r2, [r3, #61]	; 0x3d
 8001092:	68fb      	ldr	r3, [r7, #12]
 8001094:	681b      	ldr	r3, [r3, #0]
 8001096:	695b      	ldr	r3, [r3, #20]
 8001098:	f003 0302 	and.w	r3, r3, #2
 800109c:	2b02      	cmp	r3, #2
 800109e:	d129      	bne.n	80010f4 <HAL_I2C_IsDeviceReady+0x1f8>
 80010a0:	68fb      	ldr	r3, [r7, #12]
 80010a2:	681b      	ldr	r3, [r3, #0]
 80010a4:	681a      	ldr	r2, [r3, #0]
 80010a6:	68fb      	ldr	r3, [r7, #12]
 80010a8:	681b      	ldr	r3, [r3, #0]
 80010aa:	f442 7200 	orr.w	r2, r2, #512	; 0x200
 80010ae:	601a      	str	r2, [r3, #0]
 80010b0:	2300      	movs	r3, #0
 80010b2:	613b      	str	r3, [r7, #16]
 80010b4:	68fb      	ldr	r3, [r7, #12]
 80010b6:	681b      	ldr	r3, [r3, #0]
 80010b8:	695b      	ldr	r3, [r3, #20]
 80010ba:	613b      	str	r3, [r7, #16]
 80010bc:	68fb      	ldr	r3, [r7, #12]
 80010be:	681b      	ldr	r3, [r3, #0]
 80010c0:	699b      	ldr	r3, [r3, #24]
 80010c2:	613b      	str	r3, [r7, #16]
 80010c4:	693b      	ldr	r3, [r7, #16]
 80010c6:	6a7b      	ldr	r3, [r7, #36]	; 0x24
 80010c8:	9300      	str	r3, [sp, #0]
 80010ca:	2319      	movs	r3, #25
 80010cc:	2201      	movs	r2, #1
 80010ce:	4921      	ldr	r1, [pc, #132]	; (8001154 <HAL_I2C_IsDeviceReady+0x258>)
 80010d0:	68f8      	ldr	r0, [r7, #12]
 80010d2:	f000 f8c5 	bl	8001260 <I2C_WaitOnFlagUntilTimeout>
 80010d6:	4603      	mov	r3, r0
 80010d8:	2b00      	cmp	r3, #0
 80010da:	d001      	beq.n	80010e0 <HAL_I2C_IsDeviceReady+0x1e4>
 80010dc:	2303      	movs	r3, #3
 80010de:	e035      	b.n	800114c <HAL_I2C_IsDeviceReady+0x250>
 80010e0:	68fb      	ldr	r3, [r7, #12]
 80010e2:	2220      	movs	r2, #32
 80010e4:	f883 203d 	strb.w	r2, [r3, #61]	; 0x3d
 80010e8:	68fb      	ldr	r3, [r7, #12]
 80010ea:	2200      	movs	r2, #0
 80010ec:	f883 203c 	strb.w	r2, [r3, #60]	; 0x3c
 80010f0:	2300      	movs	r3, #0
 80010f2:	e02b      	b.n	800114c <HAL_I2C_IsDeviceReady+0x250>
 80010f4:	68fb      	ldr	r3, [r7, #12]
 80010f6:	681b      	ldr	r3, [r3, #0]
 80010f8:	681a      	ldr	r2, [r3, #0]
 80010fa:	68fb      	ldr	r3, [r7, #12]
 80010fc:	681b      	ldr	r3, [r3, #0]
 80010fe:	f442 7200 	orr.w	r2, r2, #512	; 0x200
 8001102:	601a      	str	r2, [r3, #0]
 8001104:	68fb      	ldr	r3, [r7, #12]
 8001106:	681b      	ldr	r3, [r3, #0]
 8001108:	f46f 6280 	mvn.w	r2, #1024	; 0x400
 800110c:	615a      	str	r2, [r3, #20]
 800110e:	6a7b      	ldr	r3, [r7, #36]	; 0x24
 8001110:	9300      	str	r3, [sp, #0]
 8001112:	2319      	movs	r3, #25
 8001114:	2201      	movs	r2, #1
 8001116:	490f      	ldr	r1, [pc, #60]	; (8001154 <HAL_I2C_IsDeviceReady+0x258>)
 8001118:	68f8      	ldr	r0, [r7, #12]
 800111a:	f000 f8a1 	bl	8001260 <I2C_WaitOnFlagUntilTimeout>
 800111e:	4603      	mov	r3, r0
 8001120:	2b00      	cmp	r3, #0
 8001122:	d001      	beq.n	8001128 <HAL_I2C_IsDeviceReady+0x22c>
 8001124:	2303      	movs	r3, #3
 8001126:	e011      	b.n	800114c <HAL_I2C_IsDeviceReady+0x250>
 8001128:	697b      	ldr	r3, [r7, #20]
 800112a:	1c5a      	adds	r2, r3, #1
 800112c:	617a      	str	r2, [r7, #20]
 800112e:	687a      	ldr	r2, [r7, #4]
 8001130:	429a      	cmp	r2, r3
 8001132:	f63f af38 	bhi.w	8000fa6 <HAL_I2C_IsDeviceReady+0xaa>
 8001136:	68fb      	ldr	r3, [r7, #12]
 8001138:	2220      	movs	r2, #32
 800113a:	f883 203d 	strb.w	r2, [r3, #61]	; 0x3d
 800113e:	68fb      	ldr	r3, [r7, #12]
 8001140:	2200      	movs	r2, #0
 8001142:	f883 203c 	strb.w	r2, [r3, #60]	; 0x3c
 8001146:	2301      	movs	r3, #1
 8001148:	e000      	b.n	800114c <HAL_I2C_IsDeviceReady+0x250>
 800114a:	2302      	movs	r3, #2
 800114c:	4618      	mov	r0, r3
 800114e:	3728      	adds	r7, #40	; 0x28
 8001150:	46bd      	mov	sp, r7
 8001152:	bd80      	pop	{r7, pc}
 8001154:	00100002 	.word	0x00100002
 8001158:	ffff0000 	.word	0xffff0000

0800115c <I2C_MasterRequestWrite>:
 800115c:	b580      	push	{r7, lr}
 800115e:	b088      	sub	sp, #32
 8001160:	af02      	add	r7, sp, #8
 8001162:	60f8      	str	r0, [r7, #12]
 8001164:	607a      	str	r2, [r7, #4]
 8001166:	603b      	str	r3, [r7, #0]
 8001168:	460b      	mov	r3, r1
 800116a:	817b      	strh	r3, [r7, #10]
 800116c:	68fb      	ldr	r3, [r7, #12]
 800116e:	6adb      	ldr	r3, [r3, #44]	; 0x2c
 8001170:	617b      	str	r3, [r7, #20]
 8001172:	697b      	ldr	r3, [r7, #20]
 8001174:	2b04      	cmp	r3, #4
 8001176:	d006      	beq.n	8001186 <I2C_MasterRequestWrite+0x2a>
 8001178:	697b      	ldr	r3, [r7, #20]
 800117a:	2b01      	cmp	r3, #1
 800117c:	d003      	beq.n	8001186 <I2C_MasterRequestWrite+0x2a>
 800117e:	697b      	ldr	r3, [r7, #20]
 8001180:	f513 3f80 	cmn.w	r3, #65536	; 0x10000
 8001184:	d108      	bne.n	8001198 <I2C_MasterRequestWrite+0x3c>
 8001186:	68fb      	ldr	r3, [r7, #12]
 8001188:	681b      	ldr	r3, [r3, #0]
 800118a:	681a      	ldr	r2, [r3, #0]
 800118c:	68fb      	ldr	r3, [r7, #12]
 800118e:	681b      	ldr	r3, [r3, #0]
 8001190:	f442 7280 	orr.w	r2, r2, #256	; 0x100
 8001194:	601a      	str	r2, [r3, #0]
 8001196:	e00b      	b.n	80011b0 <I2C_MasterRequestWrite+0x54>
 8001198:	68fb      	ldr	r3, [r7, #12]
 800119a:	6b1b      	ldr	r3, [r3, #48]	; 0x30
 800119c:	2b12      	cmp	r3, #18
 800119e:	d107      	bne.n	80011b0 <I2C_MasterRequestWrite+0x54>
 80011a0:	68fb      	ldr	r3, [r7, #12]
 80011a2:	681b      	ldr	r3, [r3, #0]
 80011a4:	681a      	ldr	r2, [r3, #0]
 80011a6:	68fb      	ldr	r3, [r7, #12]
 80011a8:	681b      	ldr	r3, [r3, #0]
 80011aa:	f442 7280 	orr.w	r2, r2, #256	; 0x100
 80011ae:	601a      	str	r2, [r3, #0]
 80011b0:	683b      	ldr	r3, [r7, #0]
 80011b2:	9300      	str	r3, [sp, #0]
 80011b4:	687b      	ldr	r3, [r7, #4]
 80011b6:	2200      	movs	r2, #0
 80011b8:	f04f 1101 	mov.w	r1, #65537	; 0x10001
 80011bc:	68f8      	ldr	r0, [r7, #12]
 80011be:	f000 f84f 	bl	8001260 <I2C_WaitOnFlagUntilTimeout>
 80011c2:	4603      	mov	r3, r0
 80011c4:	2b00      	cmp	r3, #0
 80011c6:	d001      	beq.n	80011cc <I2C_MasterRequestWrite+0x70>
 80011c8:	2303      	movs	r3, #3
 80011ca:	e041      	b.n	8001250 <I2C_MasterRequestWrite+0xf4>
 80011cc:	68fb      	ldr	r3, [r7, #12]
 80011ce:	691b      	ldr	r3, [r3, #16]
 80011d0:	f5b3 4f80 	cmp.w	r3, #16384	; 0x4000
 80011d4:	d108      	bne.n	80011e8 <I2C_MasterRequestWrite+0x8c>
 80011d6:	897b      	ldrh	r3, [r7, #10]
 80011d8:	b2db      	uxtb	r3, r3
 80011da:	461a      	mov	r2, r3
 80011dc:	68fb      	ldr	r3, [r7, #12]
 80011de:	681b      	ldr	r3, [r3, #0]
 80011e0:	f002 02fe 	and.w	r2, r2, #254	; 0xfe
 80011e4:	611a      	str	r2, [r3, #16]
 80011e6:	e021      	b.n	800122c <I2C_MasterRequestWrite+0xd0>
 80011e8:	897b      	ldrh	r3, [r7, #10]
 80011ea:	11db      	asrs	r3, r3, #7
 80011ec:	b2db      	uxtb	r3, r3
 80011ee:	f003 0306 	and.w	r3, r3, #6
 80011f2:	b2db      	uxtb	r3, r3
 80011f4:	f063 030f 	orn	r3, r3, #15
 80011f8:	b2da      	uxtb	r2, r3
 80011fa:	68fb      	ldr	r3, [r7, #12]
 80011fc:	681b      	ldr	r3, [r3, #0]
 80011fe:	611a      	str	r2, [r3, #16]
 8001200:	683b      	ldr	r3, [r7, #0]
 8001202:	687a      	ldr	r2, [r7, #4]
 8001204:	4914      	ldr	r1, [pc, #80]	; (8001258 <I2C_MasterRequestWrite+0xfc>)
 8001206:	68f8      	ldr	r0, [r7, #12]
 8001208:	f000 f87b 	bl	8001302 <I2C_WaitOnMasterAddressFlagUntilTimeout>
 800120c:	4603      	mov	r3, r0
 800120e:	2b00      	cmp	r3, #0
 8001210:	d007      	beq.n	8001222 <I2C_MasterRequestWrite+0xc6>
 8001212:	68fb      	ldr	r3, [r7, #12]
 8001214:	6c1b      	ldr	r3, [r3, #64]	; 0x40
 8001216:	2b04      	cmp	r3, #4
 8001218:	d101      	bne.n	800121e <I2C_MasterRequestWrite+0xc2>
 800121a:	2301      	movs	r3, #1
 800121c:	e018      	b.n	8001250 <I2C_MasterRequestWrite+0xf4>
 800121e:	2303      	movs	r3, #3
 8001220:	e016      	b.n	8001250 <I2C_MasterRequestWrite+0xf4>
 8001222:	897b      	ldrh	r3, [r7, #10]
 8001224:	b2da      	uxtb	r2, r3
 8001226:	68fb      	ldr	r3, [r7, #12]
 8001228:	681b      	ldr	r3, [r3, #0]
 800122a:	611a      	str	r2, [r3, #16]
 800122c:	683b      	ldr	r3, [r7, #0]
 800122e:	687a      	ldr	r2, [r7, #4]
 8001230:	490a      	ldr	r1, [pc, #40]	; (800125c <I2C_MasterRequestWrite+0x100>)
 8001232:	68f8      	ldr	r0, [r7, #12]
 8001234:	f000 f865 	bl	8001302 <I2C_WaitOnMasterAddressFlagUntilTimeout>
 8001238:	4603      	mov	r3, r0
 800123a:	2b00      	cmp	r3, #0
 800123c:	d007      	beq.n	800124e <I2C_MasterRequestWrite+0xf2>
 800123e:	68fb      	ldr	r3, [r7, #12]
 8001240:	6c1b      	ldr	r3, [r3, #64]	; 0x40
 8001242:	2b04      	cmp	r3, #4
 8001244:	d101      	bne.n	800124a <I2C_MasterRequestWrite+0xee>
 8001246:	2301      	movs	r3, #1
 8001248:	e002      	b.n	8001250 <I2C_MasterRequestWrite+0xf4>
 800124a:	2303      	movs	r3, #3
 800124c:	e000      	b.n	8001250 <I2C_MasterRequestWrite+0xf4>
 800124e:	2300      	movs	r3, #0
 8001250:	4618      	mov	r0, r3
 8001252:	3718      	adds	r7, #24
 8001254:	46bd      	mov	sp, r7
 8001256:	bd80      	pop	{r7, pc}
 8001258:	00010008 	.word	0x00010008
 800125c:	00010002 	.word	0x00010002

08001260 <I2C_WaitOnFlagUntilTimeout>:
 8001260:	b580      	push	{r7, lr}
 8001262:	b084      	sub	sp, #16
 8001264:	af00      	add	r7, sp, #0
 8001266:	60f8      	str	r0, [r7, #12]
 8001268:	60b9      	str	r1, [r7, #8]
 800126a:	603b      	str	r3, [r7, #0]
 800126c:	4613      	mov	r3, r2
 800126e:	71fb      	strb	r3, [r7, #7]
 8001270:	e01f      	b.n	80012b2 <I2C_WaitOnFlagUntilTimeout+0x52>
 8001272:	683b      	ldr	r3, [r7, #0]
 8001274:	f1b3 3fff 	cmp.w	r3, #4294967295
 8001278:	d01b      	beq.n	80012b2 <I2C_WaitOnFlagUntilTimeout+0x52>
 800127a:	683b      	ldr	r3, [r7, #0]
 800127c:	2b00      	cmp	r3, #0
 800127e:	d007      	beq.n	8001290 <I2C_WaitOnFlagUntilTimeout+0x30>
 8001280:	f7ff f98a 	bl	8000598 <HAL_GetTick>
 8001284:	4602      	mov	r2, r0
 8001286:	69bb      	ldr	r3, [r7, #24]
 8001288:	1ad3      	subs	r3, r2, r3
 800128a:	683a      	ldr	r2, [r7, #0]
 800128c:	429a      	cmp	r2, r3
 800128e:	d210      	bcs.n	80012b2 <I2C_WaitOnFlagUntilTimeout+0x52>
 8001290:	68fb      	ldr	r3, [r7, #12]
 8001292:	2200      	movs	r2, #0
 8001294:	631a      	str	r2, [r3, #48]	; 0x30
 8001296:	68fb      	ldr	r3, [r7, #12]
 8001298:	2220      	movs	r2, #32
 800129a:	f883 203d 	strb.w	r2, [r3, #61]	; 0x3d
 800129e:	68fb      	ldr	r3, [r7, #12]
 80012a0:	2200      	movs	r2, #0
 80012a2:	f883 203e 	strb.w	r2, [r3, #62]	; 0x3e
 80012a6:	68fb      	ldr	r3, [r7, #12]
 80012a8:	2200      	movs	r2, #0
 80012aa:	f883 203c 	strb.w	r2, [r3, #60]	; 0x3c
 80012ae:	2303      	movs	r3, #3
 80012b0:	e023      	b.n	80012fa <I2C_WaitOnFlagUntilTimeout+0x9a>
 80012b2:	68bb      	ldr	r3, [r7, #8]
 80012b4:	0c1b      	lsrs	r3, r3, #16
 80012b6:	b2db      	uxtb	r3, r3
 80012b8:	2b01      	cmp	r3, #1
 80012ba:	d10d      	bne.n	80012d8 <I2C_WaitOnFlagUntilTimeout+0x78>
 80012bc:	68fb      	ldr	r3, [r7, #12]
 80012be:	681b      	ldr	r3, [r3, #0]
 80012c0:	695b      	ldr	r3, [r3, #20]
 80012c2:	43da      	mvns	r2, r3
 80012c4:	68bb      	ldr	r3, [r7, #8]
 80012c6:	4013      	ands	r3, r2
 80012c8:	b29b      	uxth	r3, r3
 80012ca:	2b00      	cmp	r3, #0
 80012cc:	bf0c      	ite	eq
 80012ce:	2301      	moveq	r3, #1
 80012d0:	2300      	movne	r3, #0
 80012d2:	b2db      	uxtb	r3, r3
 80012d4:	461a      	mov	r2, r3
 80012d6:	e00c      	b.n	80012f2 <I2C_WaitOnFlagUntilTimeout+0x92>
 80012d8:	68fb      	ldr	r3, [r7, #12]
 80012da:	681b      	ldr	r3, [r3, #0]
 80012dc:	699b      	ldr	r3, [r3, #24]
 80012de:	43da      	mvns	r2, r3
 80012e0:	68bb      	ldr	r3, [r7, #8]
 80012e2:	4013      	ands	r3, r2
 80012e4:	b29b      	uxth	r3, r3
 80012e6:	2b00      	cmp	r3, #0
 80012e8:	bf0c      	ite	eq
 80012ea:	2301      	moveq	r3, #1
 80012ec:	2300      	movne	r3, #0
 80012ee:	b2db      	uxtb	r3, r3
 80012f0:	461a      	mov	r2, r3
 80012f2:	79fb      	ldrb	r3, [r7, #7]
 80012f4:	429a      	cmp	r2, r3
 80012f6:	d0bc      	beq.n	8001272 <I2C_WaitOnFlagUntilTimeout+0x12>
 80012f8:	2300      	movs	r3, #0
 80012fa:	4618      	mov	r0, r3
 80012fc:	3710      	adds	r7, #16
 80012fe:	46bd      	mov	sp, r7
 8001300:	bd80      	pop	{r7, pc}

08001302 <I2C_WaitOnMasterAddressFlagUntilTimeout>:
 8001302:	b580      	push	{r7, lr}
 8001304:	b084      	sub	sp, #16
 8001306:	af00      	add	r7, sp, #0
 8001308:	60f8      	str	r0, [r7, #12]
 800130a:	60b9      	str	r1, [r7, #8]
 800130c:	607a      	str	r2, [r7, #4]
 800130e:	603b      	str	r3, [r7, #0]
 8001310:	e040      	b.n	8001394 <I2C_WaitOnMasterAddressFlagUntilTimeout+0x92>
 8001312:	68fb      	ldr	r3, [r7, #12]
 8001314:	681b      	ldr	r3, [r3, #0]
 8001316:	695b      	ldr	r3, [r3, #20]
 8001318:	f403 6380 	and.w	r3, r3, #1024	; 0x400
 800131c:	f5b3 6f80 	cmp.w	r3, #1024	; 0x400
 8001320:	d11c      	bne.n	800135c <I2C_WaitOnMasterAddressFlagUntilTimeout+0x5a>
 8001322:	68fb      	ldr	r3, [r7, #12]
 8001324:	681b      	ldr	r3, [r3, #0]
 8001326:	681a      	ldr	r2, [r3, #0]
 8001328:	68fb      	ldr	r3, [r7, #12]
 800132a:	681b      	ldr	r3, [r3, #0]
 800132c:	f442 7200 	orr.w	r2, r2, #512	; 0x200
 8001330:	601a      	str	r2, [r3, #0]
 8001332:	68fb      	ldr	r3, [r7, #12]
 8001334:	681b      	ldr	r3, [r3, #0]
 8001336:	f46f 6280 	mvn.w	r2, #1024	; 0x400
 800133a:	615a      	str	r2, [r3, #20]
 800133c:	68fb      	ldr	r3, [r7, #12]
 800133e:	2204      	movs	r2, #4
 8001340:	641a      	str	r2, [r3, #64]	; 0x40
 8001342:	68fb      	ldr	r3, [r7, #12]
 8001344:	2200      	movs	r2, #0
 8001346:	631a      	str	r2, [r3, #48]	; 0x30
 8001348:	68fb      	ldr	r3, [r7, #12]
 800134a:	2220      	movs	r2, #32
 800134c:	f883 203d 	strb.w	r2, [r3, #61]	; 0x3d
 8001350:	68fb      	ldr	r3, [r7, #12]
 8001352:	2200      	movs	r2, #0
 8001354:	f883 203c 	strb.w	r2, [r3, #60]	; 0x3c
 8001358:	2301      	movs	r3, #1
 800135a:	e03c      	b.n	80013d6 <I2C_WaitOnMasterAddressFlagUntilTimeout+0xd4>
 800135c:	687b      	ldr	r3, [r7, #4]
 800135e:	f1b3 3fff 	cmp.w	r3, #4294967295
 8001362:	d017      	beq.n	8001394 <I2C_WaitOnMasterAddressFlagUntilTimeout+0x92>
 8001364:	687b      	ldr	r3, [r7, #4]
 8001366:	2b00      	cmp	r3, #0
 8001368:	d007      	beq.n	800137a <I2C_WaitOnMasterAddressFlagUntilTimeout+0x78>
 800136a:	f7ff f915 	bl	8000598 <HAL_GetTick>
 800136e:	4602      	mov	r2, r0
 8001370:	683b      	ldr	r3, [r7, #0]
 8001372:	1ad3      	subs	r3, r2, r3
 8001374:	687a      	ldr	r2, [r7, #4]
 8001376:	429a      	cmp	r2, r3
 8001378:	d20c      	bcs.n	8001394 <I2C_WaitOnMasterAddressFlagUntilTimeout+0x92>
 800137a:	68fb      	ldr	r3, [r7, #12]
 800137c:	2200      	movs	r2, #0
 800137e:	631a      	str	r2, [r3, #48]	; 0x30
 8001380:	68fb      	ldr	r3, [r7, #12]
 8001382:	2220      	movs	r2, #32
 8001384:	f883 203d 	strb.w	r2, [r3, #61]	; 0x3d
 8001388:	68fb      	ldr	r3, [r7, #12]
 800138a:	2200      	movs	r2, #0
 800138c:	f883 203c 	strb.w	r2, [r3, #60]	; 0x3c
 8001390:	2303      	movs	r3, #3
 8001392:	e020      	b.n	80013d6 <I2C_WaitOnMasterAddressFlagUntilTimeout+0xd4>
 8001394:	68bb      	ldr	r3, [r7, #8]
 8001396:	0c1b      	lsrs	r3, r3, #16
 8001398:	b2db      	uxtb	r3, r3
 800139a:	2b01      	cmp	r3, #1
 800139c:	d10c      	bne.n	80013b8 <I2C_WaitOnMasterAddressFlagUntilTimeout+0xb6>
 800139e:	68fb      	ldr	r3, [r7, #12]
 80013a0:	681b      	ldr	r3, [r3, #0]
 80013a2:	695b      	ldr	r3, [r3, #20]
 80013a4:	43da      	mvns	r2, r3
 80013a6:	68bb      	ldr	r3, [r7, #8]
 80013a8:	4013      	ands	r3, r2
 80013aa:	b29b      	uxth	r3, r3
 80013ac:	2b00      	cmp	r3, #0
 80013ae:	bf14      	ite	ne
 80013b0:	2301      	movne	r3, #1
 80013b2:	2300      	moveq	r3, #0
 80013b4:	b2db      	uxtb	r3, r3
 80013b6:	e00b      	b.n	80013d0 <I2C_WaitOnMasterAddressFlagUntilTimeout+0xce>
 80013b8:	68fb      	ldr	r3, [r7, #12]
 80013ba:	681b      	ldr	r3, [r3, #0]
 80013bc:	699b      	ldr	r3, [r3, #24]
 80013be:	43da      	mvns	r2, r3
 80013c0:	68bb      	ldr	r3, [r7, #8]
 80013c2:	4013      	ands	r3, r2
 80013c4:	b29b      	uxth	r3, r3
 80013c6:	2b00      	cmp	r3, #0
 80013c8:	bf14      	ite	ne
 80013ca:	2301      	movne	r3, #1
 80013cc:	2300      	moveq	r3, #0
 80013ce:	b2db      	uxtb	r3, r3
 80013d0:	2b00      	cmp	r3, #0
 80013d2:	d19e      	bne.n	8001312 <I2C_WaitOnMasterAddressFlagUntilTimeout+0x10>
 80013d4:	2300      	movs	r3, #0
 80013d6:	4618      	mov	r0, r3
 80013d8:	3710      	adds	r7, #16
 80013da:	46bd      	mov	sp, r7
 80013dc:	bd80      	pop	{r7, pc}

080013de <I2C_WaitOnTXEFlagUntilTimeout>:
 80013de:	b580      	push	{r7, lr}
 80013e0:	b084      	sub	sp, #16
 80013e2:	af00      	add	r7, sp, #0
 80013e4:	60f8      	str	r0, [r7, #12]
 80013e6:	60b9      	str	r1, [r7, #8]
 80013e8:	607a      	str	r2, [r7, #4]
 80013ea:	e029      	b.n	8001440 <I2C_WaitOnTXEFlagUntilTimeout+0x62>
 80013ec:	68f8      	ldr	r0, [r7, #12]
 80013ee:	f000 f870 	bl	80014d2 <I2C_IsAcknowledgeFailed>
 80013f2:	4603      	mov	r3, r0
 80013f4:	2b00      	cmp	r3, #0
 80013f6:	d001      	beq.n	80013fc <I2C_WaitOnTXEFlagUntilTimeout+0x1e>
 80013f8:	2301      	movs	r3, #1
 80013fa:	e029      	b.n	8001450 <I2C_WaitOnTXEFlagUntilTimeout+0x72>
 80013fc:	68bb      	ldr	r3, [r7, #8]
 80013fe:	f1b3 3fff 	cmp.w	r3, #4294967295
 8001402:	d01d      	beq.n	8001440 <I2C_WaitOnTXEFlagUntilTimeout+0x62>
 8001404:	68bb      	ldr	r3, [r7, #8]
 8001406:	2b00      	cmp	r3, #0
 8001408:	d007      	beq.n	800141a <I2C_WaitOnTXEFlagUntilTimeout+0x3c>
 800140a:	f7ff f8c5 	bl	8000598 <HAL_GetTick>
 800140e:	4602      	mov	r2, r0
 8001410:	687b      	ldr	r3, [r7, #4]
 8001412:	1ad3      	subs	r3, r2, r3
 8001414:	68ba      	ldr	r2, [r7, #8]
 8001416:	429a      	cmp	r2, r3
 8001418:	d212      	bcs.n	8001440 <I2C_WaitOnTXEFlagUntilTimeout+0x62>
 800141a:	68fb      	ldr	r3, [r7, #12]
 800141c:	6c1b      	ldr	r3, [r3, #64]	; 0x40
 800141e:	f043 0220 	orr.w	r2, r3, #32
 8001422:	68fb      	ldr	r3, [r7, #12]
 8001424:	641a      	str	r2, [r3, #64]	; 0x40
 8001426:	68fb      	ldr	r3, [r7, #12]
 8001428:	2200      	movs	r2, #0
 800142a:	631a      	str	r2, [r3, #48]	; 0x30
 800142c:	68fb      	ldr	r3, [r7, #12]
 800142e:	2220      	movs	r2, #32
 8001430:	f883 203d 	strb.w	r2, [r3, #61]	; 0x3d
 8001434:	68fb      	ldr	r3, [r7, #12]
 8001436:	2200      	movs	r2, #0
 8001438:	f883 203c 	strb.w	r2, [r3, #60]	; 0x3c
 800143c:	2303      	movs	r3, #3
 800143e:	e007      	b.n	8001450 <I2C_WaitOnTXEFlagUntilTimeout+0x72>
 8001440:	68fb      	ldr	r3, [r7, #12]
 8001442:	681b      	ldr	r3, [r3, #0]
 8001444:	695b      	ldr	r3, [r3, #20]
 8001446:	f003 0380 	and.w	r3, r3, #128	; 0x80
 800144a:	2b80      	cmp	r3, #128	; 0x80
 800144c:	d1ce      	bne.n	80013ec <I2C_WaitOnTXEFlagUntilTimeout+0xe>
 800144e:	2300      	movs	r3, #0
 8001450:	4618      	mov	r0, r3
 8001452:	3710      	adds	r7, #16
 8001454:	46bd      	mov	sp, r7
 8001456:	bd80      	pop	{r7, pc}

08001458 <I2C_WaitOnBTFFlagUntilTimeout>:
 8001458:	b580      	push	{r7, lr}
 800145a:	b084      	sub	sp, #16
 800145c:	af00      	add	r7, sp, #0
 800145e:	60f8      	str	r0, [r7, #12]
 8001460:	60b9      	str	r1, [r7, #8]
 8001462:	607a      	str	r2, [r7, #4]
 8001464:	e029      	b.n	80014ba <I2C_WaitOnBTFFlagUntilTimeout+0x62>
 8001466:	68f8      	ldr	r0, [r7, #12]
 8001468:	f000 f833 	bl	80014d2 <I2C_IsAcknowledgeFailed>
 800146c:	4603      	mov	r3, r0
 800146e:	2b00      	cmp	r3, #0
 8001470:	d001      	beq.n	8001476 <I2C_WaitOnBTFFlagUntilTimeout+0x1e>
 8001472:	2301      	movs	r3, #1
 8001474:	e029      	b.n	80014ca <I2C_WaitOnBTFFlagUntilTimeout+0x72>
 8001476:	68bb      	ldr	r3, [r7, #8]
 8001478:	f1b3 3fff 	cmp.w	r3, #4294967295
 800147c:	d01d      	beq.n	80014ba <I2C_WaitOnBTFFlagUntilTimeout+0x62>
 800147e:	68bb      	ldr	r3, [r7, #8]
 8001480:	2b00      	cmp	r3, #0
 8001482:	d007      	beq.n	8001494 <I2C_WaitOnBTFFlagUntilTimeout+0x3c>
 8001484:	f7ff f888 	bl	8000598 <HAL_GetTick>
 8001488:	4602      	mov	r2, r0
 800148a:	687b      	ldr	r3, [r7, #4]
 800148c:	1ad3      	subs	r3, r2, r3
 800148e:	68ba      	ldr	r2, [r7, #8]
 8001490:	429a      	cmp	r2, r3
 8001492:	d212      	bcs.n	80014ba <I2C_WaitOnBTFFlagUntilTimeout+0x62>
 8001494:	68fb      	ldr	r3, [r7, #12]
 8001496:	6c1b      	ldr	r3, [r3, #64]	; 0x40
 8001498:	f043 0220 	orr.w	r2, r3, #32
 800149c:	68fb      	ldr	r3, [r7, #12]
 800149e:	641a      	str	r2, [r3, #64]	; 0x40
 80014a0:	68fb      	ldr	r3, [r7, #12]
 80014a2:	2200      	movs	r2, #0
 80014a4:	631a      	str	r2, [r3, #48]	; 0x30
 80014a6:	68fb      	ldr	r3, [r7, #12]
 80014a8:	2220      	movs	r2, #32
 80014aa:	f883 203d 	strb.w	r2, [r3, #61]	; 0x3d
 80014ae:	68fb      	ldr	r3, [r7, #12]
 80014b0:	2200      	movs	r2, #0
 80014b2:	f883 203c 	strb.w	r2, [r3, #60]	; 0x3c
 80014b6:	2303      	movs	r3, #3
 80014b8:	e007      	b.n	80014ca <I2C_WaitOnBTFFlagUntilTimeout+0x72>
 80014ba:	68fb      	ldr	r3, [r7, #12]
 80014bc:	681b      	ldr	r3, [r3, #0]
 80014be:	695b      	ldr	r3, [r3, #20]
 80014c0:	f003 0304 	and.w	r3, r3, #4
 80014c4:	2b04      	cmp	r3, #4
 80014c6:	d1ce      	bne.n	8001466 <I2C_WaitOnBTFFlagUntilTimeout+0xe>
 80014c8:	2300      	movs	r3, #0
 80014ca:	4618      	mov	r0, r3
 80014cc:	3710      	adds	r7, #16
 80014ce:	46bd      	mov	sp, r7
 80014d0:	bd80      	pop	{r7, pc}

080014d2 <I2C_IsAcknowledgeFailed>:
 80014d2:	b480      	push	{r7}
 80014d4:	b083      	sub	sp, #12
 80014d6:	af00      	add	r7, sp, #0
 80014d8:	6078      	str	r0, [r7, #4]
 80014da:	687b      	ldr	r3, [r7, #4]
 80014dc:	681b      	ldr	r3, [r3, #0]
 80014de:	695b      	ldr	r3, [r3, #20]
 80014e0:	f403 6380 	and.w	r3, r3, #1024	; 0x400
 80014e4:	f5b3 6f80 	cmp.w	r3, #1024	; 0x400
 80014e8:	d114      	bne.n	8001514 <I2C_IsAcknowledgeFailed+0x42>
 80014ea:	687b      	ldr	r3, [r7, #4]
 80014ec:	681b      	ldr	r3, [r3, #0]
 80014ee:	f46f 6280 	mvn.w	r2, #1024	; 0x400
 80014f2:	615a      	str	r2, [r3, #20]
 80014f4:	687b      	ldr	r3, [r7, #4]
 80014f6:	2204      	movs	r2, #4
 80014f8:	641a      	str	r2, [r3, #64]	; 0x40
 80014fa:	687b      	ldr	r3, [r7, #4]
 80014fc:	2200      	movs	r2, #0
 80014fe:	631a      	str	r2, [r3, #48]	; 0x30
 8001500:	687b      	ldr	r3, [r7, #4]
 8001502:	2220      	movs	r2, #32
 8001504:	f883 203d 	strb.w	r2, [r3, #61]	; 0x3d
 8001508:	687b      	ldr	r3, [r7, #4]
 800150a:	2200      	movs	r2, #0
 800150c:	f883 203c 	strb.w	r2, [r3, #60]	; 0x3c
 8001510:	2301      	movs	r3, #1
 8001512:	e000      	b.n	8001516 <I2C_IsAcknowledgeFailed+0x44>
 8001514:	2300      	movs	r3, #0
 8001516:	4618      	mov	r0, r3
 8001518:	370c      	adds	r7, #12
 800151a:	46bd      	mov	sp, r7
 800151c:	f85d 7b04 	ldr.w	r7, [sp], #4
 8001520:	4770      	bx	lr

08001522 <HAL_MspInit>:
 8001522:	b480      	push	{r7}
 8001524:	af00      	add	r7, sp, #0
 8001526:	bf00      	nop
 8001528:	46bd      	mov	sp, r7
 800152a:	f85d 7b04 	ldr.w	r7, [sp], #4
 800152e:	4770      	bx	lr

08001530 <HAL_RCC_OscConfig>:
 8001530:	b580      	push	{r7, lr}
 8001532:	b086      	sub	sp, #24
 8001534:	af00      	add	r7, sp, #0
 8001536:	6078      	str	r0, [r7, #4]
 8001538:	687b      	ldr	r3, [r7, #4]
 800153a:	2b00      	cmp	r3, #0
 800153c:	d101      	bne.n	8001542 <HAL_RCC_OscConfig+0x12>
 800153e:	2301      	movs	r3, #1
 8001540:	e22d      	b.n	800199e <HAL_RCC_OscConfig+0x46e>
 8001542:	687b      	ldr	r3, [r7, #4]
 8001544:	681b      	ldr	r3, [r3, #0]
 8001546:	f003 0301 	and.w	r3, r3, #1
 800154a:	2b00      	cmp	r3, #0
 800154c:	d075      	beq.n	800163a <HAL_RCC_OscConfig+0x10a>
 800154e:	4ba3      	ldr	r3, [pc, #652]	; (80017dc <HAL_RCC_OscConfig+0x2ac>)
 8001550:	689b      	ldr	r3, [r3, #8]
 8001552:	f003 030c 	and.w	r3, r3, #12
 8001556:	2b04      	cmp	r3, #4
 8001558:	d00c      	beq.n	8001574 <HAL_RCC_OscConfig+0x44>
 800155a:	4ba0      	ldr	r3, [pc, #640]	; (80017dc <HAL_RCC_OscConfig+0x2ac>)
 800155c:	689b      	ldr	r3, [r3, #8]
 800155e:	f003 030c 	and.w	r3, r3, #12
 8001562:	2b08      	cmp	r3, #8
 8001564:	d112      	bne.n	800158c <HAL_RCC_OscConfig+0x5c>
 8001566:	4b9d      	ldr	r3, [pc, #628]	; (80017dc <HAL_RCC_OscConfig+0x2ac>)
 8001568:	685b      	ldr	r3, [r3, #4]
 800156a:	f403 0380 	and.w	r3, r3, #4194304	; 0x400000
 800156e:	f5b3 0f80 	cmp.w	r3, #4194304	; 0x400000
 8001572:	d10b      	bne.n	800158c <HAL_RCC_OscConfig+0x5c>
 8001574:	4b99      	ldr	r3, [pc, #612]	; (80017dc <HAL_RCC_OscConfig+0x2ac>)
 8001576:	681b      	ldr	r3, [r3, #0]
 8001578:	f403 3300 	and.w	r3, r3, #131072	; 0x20000
 800157c:	2b00      	cmp	r3, #0
 800157e:	d05b      	beq.n	8001638 <HAL_RCC_OscConfig+0x108>
 8001580:	687b      	ldr	r3, [r7, #4]
 8001582:	685b      	ldr	r3, [r3, #4]
 8001584:	2b00      	cmp	r3, #0
 8001586:	d157      	bne.n	8001638 <HAL_RCC_OscConfig+0x108>
 8001588:	2301      	movs	r3, #1
 800158a:	e208      	b.n	800199e <HAL_RCC_OscConfig+0x46e>
 800158c:	687b      	ldr	r3, [r7, #4]
 800158e:	685b      	ldr	r3, [r3, #4]
 8001590:	f5b3 3f80 	cmp.w	r3, #65536	; 0x10000
 8001594:	d106      	bne.n	80015a4 <HAL_RCC_OscConfig+0x74>
 8001596:	4b91      	ldr	r3, [pc, #580]	; (80017dc <HAL_RCC_OscConfig+0x2ac>)
 8001598:	681b      	ldr	r3, [r3, #0]
 800159a:	4a90      	ldr	r2, [pc, #576]	; (80017dc <HAL_RCC_OscConfig+0x2ac>)
 800159c:	f443 3380 	orr.w	r3, r3, #65536	; 0x10000
 80015a0:	6013      	str	r3, [r2, #0]
 80015a2:	e01d      	b.n	80015e0 <HAL_RCC_OscConfig+0xb0>
 80015a4:	687b      	ldr	r3, [r7, #4]
 80015a6:	685b      	ldr	r3, [r3, #4]
 80015a8:	f5b3 2fa0 	cmp.w	r3, #327680	; 0x50000
 80015ac:	d10c      	bne.n	80015c8 <HAL_RCC_OscConfig+0x98>
 80015ae:	4b8b      	ldr	r3, [pc, #556]	; (80017dc <HAL_RCC_OscConfig+0x2ac>)
 80015b0:	681b      	ldr	r3, [r3, #0]
 80015b2:	4a8a      	ldr	r2, [pc, #552]	; (80017dc <HAL_RCC_OscConfig+0x2ac>)
 80015b4:	f443 2380 	orr.w	r3, r3, #262144	; 0x40000
 80015b8:	6013      	str	r3, [r2, #0]
 80015ba:	4b88      	ldr	r3, [pc, #544]	; (80017dc <HAL_RCC_OscConfig+0x2ac>)
 80015bc:	681b      	ldr	r3, [r3, #0]
 80015be:	4a87      	ldr	r2, [pc, #540]	; (80017dc <HAL_RCC_OscConfig+0x2ac>)
 80015c0:	f443 3380 	orr.w	r3, r3, #65536	; 0x10000
 80015c4:	6013      	str	r3, [r2, #0]
 80015c6:	e00b      	b.n	80015e0 <HAL_RCC_OscConfig+0xb0>
 80015c8:	4b84      	ldr	r3, [pc, #528]	; (80017dc <HAL_RCC_OscConfig+0x2ac>)
 80015ca:	681b      	ldr	r3, [r3, #0]
 80015cc:	4a83      	ldr	r2, [pc, #524]	; (80017dc <HAL_RCC_OscConfig+0x2ac>)
 80015ce:	f423 3380 	bic.w	r3, r3, #65536	; 0x10000
 80015d2:	6013      	str	r3, [r2, #0]
 80015d4:	4b81      	ldr	r3, [pc, #516]	; (80017dc <HAL_RCC_OscConfig+0x2ac>)
 80015d6:	681b      	ldr	r3, [r3, #0]
 80015d8:	4a80      	ldr	r2, [pc, #512]	; (80017dc <HAL_RCC_OscConfig+0x2ac>)
 80015da:	f423 2380 	bic.w	r3, r3, #262144	; 0x40000
 80015de:	6013      	str	r3, [r2, #0]
 80015e0:	687b      	ldr	r3, [r7, #4]
 80015e2:	685b      	ldr	r3, [r3, #4]
 80015e4:	2b00      	cmp	r3, #0
 80015e6:	d013      	beq.n	8001610 <HAL_RCC_OscConfig+0xe0>
 80015e8:	f7fe ffd6 	bl	8000598 <HAL_GetTick>
 80015ec:	6138      	str	r0, [r7, #16]
 80015ee:	e008      	b.n	8001602 <HAL_RCC_OscConfig+0xd2>
 80015f0:	f7fe ffd2 	bl	8000598 <HAL_GetTick>
 80015f4:	4602      	mov	r2, r0
 80015f6:	693b      	ldr	r3, [r7, #16]
 80015f8:	1ad3      	subs	r3, r2, r3
 80015fa:	2b64      	cmp	r3, #100	; 0x64
 80015fc:	d901      	bls.n	8001602 <HAL_RCC_OscConfig+0xd2>
 80015fe:	2303      	movs	r3, #3
 8001600:	e1cd      	b.n	800199e <HAL_RCC_OscConfig+0x46e>
 8001602:	4b76      	ldr	r3, [pc, #472]	; (80017dc <HAL_RCC_OscConfig+0x2ac>)
 8001604:	681b      	ldr	r3, [r3, #0]
 8001606:	f403 3300 	and.w	r3, r3, #131072	; 0x20000
 800160a:	2b00      	cmp	r3, #0
 800160c:	d0f0      	beq.n	80015f0 <HAL_RCC_OscConfig+0xc0>
 800160e:	e014      	b.n	800163a <HAL_RCC_OscConfig+0x10a>
 8001610:	f7fe ffc2 	bl	8000598 <HAL_GetTick>
 8001614:	6138      	str	r0, [r7, #16]
 8001616:	e008      	b.n	800162a <HAL_RCC_OscConfig+0xfa>
 8001618:	f7fe ffbe 	bl	8000598 <HAL_GetTick>
 800161c:	4602      	mov	r2, r0
 800161e:	693b      	ldr	r3, [r7, #16]
 8001620:	1ad3      	subs	r3, r2, r3
 8001622:	2b64      	cmp	r3, #100	; 0x64
 8001624:	d901      	bls.n	800162a <HAL_RCC_OscConfig+0xfa>
 8001626:	2303      	movs	r3, #3
 8001628:	e1b9      	b.n	800199e <HAL_RCC_OscConfig+0x46e>
 800162a:	4b6c      	ldr	r3, [pc, #432]	; (80017dc <HAL_RCC_OscConfig+0x2ac>)
 800162c:	681b      	ldr	r3, [r3, #0]
 800162e:	f403 3300 	and.w	r3, r3, #131072	; 0x20000
 8001632:	2b00      	cmp	r3, #0
 8001634:	d1f0      	bne.n	8001618 <HAL_RCC_OscConfig+0xe8>
 8001636:	e000      	b.n	800163a <HAL_RCC_OscConfig+0x10a>
 8001638:	bf00      	nop
 800163a:	687b      	ldr	r3, [r7, #4]
 800163c:	681b      	ldr	r3, [r3, #0]
 800163e:	f003 0302 	and.w	r3, r3, #2
 8001642:	2b00      	cmp	r3, #0
 8001644:	d063      	beq.n	800170e <HAL_RCC_OscConfig+0x1de>
 8001646:	4b65      	ldr	r3, [pc, #404]	; (80017dc <HAL_RCC_OscConfig+0x2ac>)
 8001648:	689b      	ldr	r3, [r3, #8]
 800164a:	f003 030c 	and.w	r3, r3, #12
 800164e:	2b00      	cmp	r3, #0
 8001650:	d00b      	beq.n	800166a <HAL_RCC_OscConfig+0x13a>
 8001652:	4b62      	ldr	r3, [pc, #392]	; (80017dc <HAL_RCC_OscConfig+0x2ac>)
 8001654:	689b      	ldr	r3, [r3, #8]
 8001656:	f003 030c 	and.w	r3, r3, #12
 800165a:	2b08      	cmp	r3, #8
 800165c:	d11c      	bne.n	8001698 <HAL_RCC_OscConfig+0x168>
 800165e:	4b5f      	ldr	r3, [pc, #380]	; (80017dc <HAL_RCC_OscConfig+0x2ac>)
 8001660:	685b      	ldr	r3, [r3, #4]
 8001662:	f403 0380 	and.w	r3, r3, #4194304	; 0x400000
 8001666:	2b00      	cmp	r3, #0
 8001668:	d116      	bne.n	8001698 <HAL_RCC_OscConfig+0x168>
 800166a:	4b5c      	ldr	r3, [pc, #368]	; (80017dc <HAL_RCC_OscConfig+0x2ac>)
 800166c:	681b      	ldr	r3, [r3, #0]
 800166e:	f003 0302 	and.w	r3, r3, #2
 8001672:	2b00      	cmp	r3, #0
 8001674:	d005      	beq.n	8001682 <HAL_RCC_OscConfig+0x152>
 8001676:	687b      	ldr	r3, [r7, #4]
 8001678:	68db      	ldr	r3, [r3, #12]
 800167a:	2b01      	cmp	r3, #1
 800167c:	d001      	beq.n	8001682 <HAL_RCC_OscConfig+0x152>
 800167e:	2301      	movs	r3, #1
 8001680:	e18d      	b.n	800199e <HAL_RCC_OscConfig+0x46e>
 8001682:	4b56      	ldr	r3, [pc, #344]	; (80017dc <HAL_RCC_OscConfig+0x2ac>)
 8001684:	681b      	ldr	r3, [r3, #0]
 8001686:	f023 02f8 	bic.w	r2, r3, #248	; 0xf8
 800168a:	687b      	ldr	r3, [r7, #4]
 800168c:	691b      	ldr	r3, [r3, #16]
 800168e:	00db      	lsls	r3, r3, #3
 8001690:	4952      	ldr	r1, [pc, #328]	; (80017dc <HAL_RCC_OscConfig+0x2ac>)
 8001692:	4313      	orrs	r3, r2
 8001694:	600b      	str	r3, [r1, #0]
 8001696:	e03a      	b.n	800170e <HAL_RCC_OscConfig+0x1de>
 8001698:	687b      	ldr	r3, [r7, #4]
 800169a:	68db      	ldr	r3, [r3, #12]
 800169c:	2b00      	cmp	r3, #0
 800169e:	d020      	beq.n	80016e2 <HAL_RCC_OscConfig+0x1b2>
 80016a0:	4b4f      	ldr	r3, [pc, #316]	; (80017e0 <HAL_RCC_OscConfig+0x2b0>)
 80016a2:	2201      	movs	r2, #1
 80016a4:	601a      	str	r2, [r3, #0]
 80016a6:	f7fe ff77 	bl	8000598 <HAL_GetTick>
 80016aa:	6138      	str	r0, [r7, #16]
 80016ac:	e008      	b.n	80016c0 <HAL_RCC_OscConfig+0x190>
 80016ae:	f7fe ff73 	bl	8000598 <HAL_GetTick>
 80016b2:	4602      	mov	r2, r0
 80016b4:	693b      	ldr	r3, [r7, #16]
 80016b6:	1ad3      	subs	r3, r2, r3
 80016b8:	2b02      	cmp	r3, #2
 80016ba:	d901      	bls.n	80016c0 <HAL_RCC_OscConfig+0x190>
 80016bc:	2303      	movs	r3, #3
 80016be:	e16e      	b.n	800199e <HAL_RCC_OscConfig+0x46e>
 80016c0:	4b46      	ldr	r3, [pc, #280]	; (80017dc <HAL_RCC_OscConfig+0x2ac>)
 80016c2:	681b      	ldr	r3, [r3, #0]
 80016c4:	f003 0302 	and.w	r3, r3, #2
 80016c8:	2b00      	cmp	r3, #0
 80016ca:	d0f0      	beq.n	80016ae <HAL_RCC_OscConfig+0x17e>
 80016cc:	4b43      	ldr	r3, [pc, #268]	; (80017dc <HAL_RCC_OscConfig+0x2ac>)
 80016ce:	681b      	ldr	r3, [r3, #0]
 80016d0:	f023 02f8 	bic.w	r2, r3, #248	; 0xf8
 80016d4:	687b      	ldr	r3, [r7, #4]
 80016d6:	691b      	ldr	r3, [r3, #16]
 80016d8:	00db      	lsls	r3, r3, #3
 80016da:	4940      	ldr	r1, [pc, #256]	; (80017dc <HAL_RCC_OscConfig+0x2ac>)
 80016dc:	4313      	orrs	r3, r2
 80016de:	600b      	str	r3, [r1, #0]
 80016e0:	e015      	b.n	800170e <HAL_RCC_OscConfig+0x1de>
 80016e2:	4b3f      	ldr	r3, [pc, #252]	; (80017e0 <HAL_RCC_OscConfig+0x2b0>)
 80016e4:	2200      	movs	r2, #0
 80016e6:	601a      	str	r2, [r3, #0]
 80016e8:	f7fe ff56 	bl	8000598 <HAL_GetTick>
 80016ec:	6138      	str	r0, [r7, #16]
 80016ee:	e008      	b.n	8001702 <HAL_RCC_OscConfig+0x1d2>
 80016f0:	f7fe ff52 	bl	8000598 <HAL_GetTick>
 80016f4:	4602      	mov	r2, r0
 80016f6:	693b      	ldr	r3, [r7, #16]
 80016f8:	1ad3      	subs	r3, r2, r3
 80016fa:	2b02      	cmp	r3, #2
 80016fc:	d901      	bls.n	8001702 <HAL_RCC_OscConfig+0x1d2>
 80016fe:	2303      	movs	r3, #3
 8001700:	e14d      	b.n	800199e <HAL_RCC_OscConfig+0x46e>
 8001702:	4b36      	ldr	r3, [pc, #216]	; (80017dc <HAL_RCC_OscConfig+0x2ac>)
 8001704:	681b      	ldr	r3, [r3, #0]
 8001706:	f003 0302 	and.w	r3, r3, #2
 800170a:	2b00      	cmp	r3, #0
 800170c:	d1f0      	bne.n	80016f0 <HAL_RCC_OscConfig+0x1c0>
 800170e:	687b      	ldr	r3, [r7, #4]
 8001710:	681b      	ldr	r3, [r3, #0]
 8001712:	f003 0308 	and.w	r3, r3, #8
 8001716:	2b00      	cmp	r3, #0
 8001718:	d030      	beq.n	800177c <HAL_RCC_OscConfig+0x24c>
 800171a:	687b      	ldr	r3, [r7, #4]
 800171c:	695b      	ldr	r3, [r3, #20]
 800171e:	2b00      	cmp	r3, #0
 8001720:	d016      	beq.n	8001750 <HAL_RCC_OscConfig+0x220>
 8001722:	4b30      	ldr	r3, [pc, #192]	; (80017e4 <HAL_RCC_OscConfig+0x2b4>)
 8001724:	2201      	movs	r2, #1
 8001726:	601a      	str	r2, [r3, #0]
 8001728:	f7fe ff36 	bl	8000598 <HAL_GetTick>
 800172c:	6138      	str	r0, [r7, #16]
 800172e:	e008      	b.n	8001742 <HAL_RCC_OscConfig+0x212>
 8001730:	f7fe ff32 	bl	8000598 <HAL_GetTick>
 8001734:	4602      	mov	r2, r0
 8001736:	693b      	ldr	r3, [r7, #16]
 8001738:	1ad3      	subs	r3, r2, r3
 800173a:	2b02      	cmp	r3, #2
 800173c:	d901      	bls.n	8001742 <HAL_RCC_OscConfig+0x212>
 800173e:	2303      	movs	r3, #3
 8001740:	e12d      	b.n	800199e <HAL_RCC_OscConfig+0x46e>
 8001742:	4b26      	ldr	r3, [pc, #152]	; (80017dc <HAL_RCC_OscConfig+0x2ac>)
 8001744:	6f5b      	ldr	r3, [r3, #116]	; 0x74
 8001746:	f003 0302 	and.w	r3, r3, #2
 800174a:	2b00      	cmp	r3, #0
 800174c:	d0f0      	beq.n	8001730 <HAL_RCC_OscConfig+0x200>
 800174e:	e015      	b.n	800177c <HAL_RCC_OscConfig+0x24c>
 8001750:	4b24      	ldr	r3, [pc, #144]	; (80017e4 <HAL_RCC_OscConfig+0x2b4>)
 8001752:	2200      	movs	r2, #0
 8001754:	601a      	str	r2, [r3, #0]
 8001756:	f7fe ff1f 	bl	8000598 <HAL_GetTick>
 800175a:	6138      	str	r0, [r7, #16]
 800175c:	e008      	b.n	8001770 <HAL_RCC_OscConfig+0x240>
 800175e:	f7fe ff1b 	bl	8000598 <HAL_GetTick>
 8001762:	4602      	mov	r2, r0
 8001764:	693b      	ldr	r3, [r7, #16]
 8001766:	1ad3      	subs	r3, r2, r3
 8001768:	2b02      	cmp	r3, #2
 800176a:	d901      	bls.n	8001770 <HAL_RCC_OscConfig+0x240>
 800176c:	2303      	movs	r3, #3
 800176e:	e116      	b.n	800199e <HAL_RCC_OscConfig+0x46e>
 8001770:	4b1a      	ldr	r3, [pc, #104]	; (80017dc <HAL_RCC_OscConfig+0x2ac>)
 8001772:	6f5b      	ldr	r3, [r3, #116]	; 0x74
 8001774:	f003 0302 	and.w	r3, r3, #2
 8001778:	2b00      	cmp	r3, #0
 800177a:	d1f0      	bne.n	800175e <HAL_RCC_OscConfig+0x22e>
 800177c:	687b      	ldr	r3, [r7, #4]
 800177e:	681b      	ldr	r3, [r3, #0]
 8001780:	f003 0304 	and.w	r3, r3, #4
 8001784:	2b00      	cmp	r3, #0
 8001786:	f000 80a0 	beq.w	80018ca <HAL_RCC_OscConfig+0x39a>
 800178a:	2300      	movs	r3, #0
 800178c:	75fb      	strb	r3, [r7, #23]
 800178e:	4b13      	ldr	r3, [pc, #76]	; (80017dc <HAL_RCC_OscConfig+0x2ac>)
 8001790:	6c1b      	ldr	r3, [r3, #64]	; 0x40
 8001792:	f003 5380 	and.w	r3, r3, #268435456	; 0x10000000
 8001796:	2b00      	cmp	r3, #0
 8001798:	d10f      	bne.n	80017ba <HAL_RCC_OscConfig+0x28a>
 800179a:	2300      	movs	r3, #0
 800179c:	60fb      	str	r3, [r7, #12]
 800179e:	4b0f      	ldr	r3, [pc, #60]	; (80017dc <HAL_RCC_OscConfig+0x2ac>)
 80017a0:	6c1b      	ldr	r3, [r3, #64]	; 0x40
 80017a2:	4a0e      	ldr	r2, [pc, #56]	; (80017dc <HAL_RCC_OscConfig+0x2ac>)
 80017a4:	f043 5380 	orr.w	r3, r3, #268435456	; 0x10000000
 80017a8:	6413      	str	r3, [r2, #64]	; 0x40
 80017aa:	4b0c      	ldr	r3, [pc, #48]	; (80017dc <HAL_RCC_OscConfig+0x2ac>)
 80017ac:	6c1b      	ldr	r3, [r3, #64]	; 0x40
 80017ae:	f003 5380 	and.w	r3, r3, #268435456	; 0x10000000
 80017b2:	60fb      	str	r3, [r7, #12]
 80017b4:	68fb      	ldr	r3, [r7, #12]
 80017b6:	2301      	movs	r3, #1
 80017b8:	75fb      	strb	r3, [r7, #23]
 80017ba:	4b0b      	ldr	r3, [pc, #44]	; (80017e8 <HAL_RCC_OscConfig+0x2b8>)
 80017bc:	681b      	ldr	r3, [r3, #0]
 80017be:	f403 7380 	and.w	r3, r3, #256	; 0x100
 80017c2:	2b00      	cmp	r3, #0
 80017c4:	d121      	bne.n	800180a <HAL_RCC_OscConfig+0x2da>
 80017c6:	4b08      	ldr	r3, [pc, #32]	; (80017e8 <HAL_RCC_OscConfig+0x2b8>)
 80017c8:	681b      	ldr	r3, [r3, #0]
 80017ca:	4a07      	ldr	r2, [pc, #28]	; (80017e8 <HAL_RCC_OscConfig+0x2b8>)
 80017cc:	f443 7380 	orr.w	r3, r3, #256	; 0x100
 80017d0:	6013      	str	r3, [r2, #0]
 80017d2:	f7fe fee1 	bl	8000598 <HAL_GetTick>
 80017d6:	6138      	str	r0, [r7, #16]
 80017d8:	e011      	b.n	80017fe <HAL_RCC_OscConfig+0x2ce>
 80017da:	bf00      	nop
 80017dc:	40023800 	.word	0x40023800
 80017e0:	42470000 	.word	0x42470000
 80017e4:	42470e80 	.word	0x42470e80
 80017e8:	40007000 	.word	0x40007000
 80017ec:	f7fe fed4 	bl	8000598 <HAL_GetTick>
 80017f0:	4602      	mov	r2, r0
 80017f2:	693b      	ldr	r3, [r7, #16]
 80017f4:	1ad3      	subs	r3, r2, r3
 80017f6:	2b02      	cmp	r3, #2
 80017f8:	d901      	bls.n	80017fe <HAL_RCC_OscConfig+0x2ce>
 80017fa:	2303      	movs	r3, #3
 80017fc:	e0cf      	b.n	800199e <HAL_RCC_OscConfig+0x46e>
 80017fe:	4b6a      	ldr	r3, [pc, #424]	; (80019a8 <HAL_RCC_OscConfig+0x478>)
 8001800:	681b      	ldr	r3, [r3, #0]
 8001802:	f403 7380 	and.w	r3, r3, #256	; 0x100
 8001806:	2b00      	cmp	r3, #0
 8001808:	d0f0      	beq.n	80017ec <HAL_RCC_OscConfig+0x2bc>
 800180a:	687b      	ldr	r3, [r7, #4]
 800180c:	689b      	ldr	r3, [r3, #8]
 800180e:	2b01      	cmp	r3, #1
 8001810:	d106      	bne.n	8001820 <HAL_RCC_OscConfig+0x2f0>
 8001812:	4b66      	ldr	r3, [pc, #408]	; (80019ac <HAL_RCC_OscConfig+0x47c>)
 8001814:	6f1b      	ldr	r3, [r3, #112]	; 0x70
 8001816:	4a65      	ldr	r2, [pc, #404]	; (80019ac <HAL_RCC_OscConfig+0x47c>)
 8001818:	f043 0301 	orr.w	r3, r3, #1
 800181c:	6713      	str	r3, [r2, #112]	; 0x70
 800181e:	e01c      	b.n	800185a <HAL_RCC_OscConfig+0x32a>
 8001820:	687b      	ldr	r3, [r7, #4]
 8001822:	689b      	ldr	r3, [r3, #8]
 8001824:	2b05      	cmp	r3, #5
 8001826:	d10c      	bne.n	8001842 <HAL_RCC_OscConfig+0x312>
 8001828:	4b60      	ldr	r3, [pc, #384]	; (80019ac <HAL_RCC_OscConfig+0x47c>)
 800182a:	6f1b      	ldr	r3, [r3, #112]	; 0x70
 800182c:	4a5f      	ldr	r2, [pc, #380]	; (80019ac <HAL_RCC_OscConfig+0x47c>)
 800182e:	f043 0304 	orr.w	r3, r3, #4
 8001832:	6713      	str	r3, [r2, #112]	; 0x70
 8001834:	4b5d      	ldr	r3, [pc, #372]	; (80019ac <HAL_RCC_OscConfig+0x47c>)
 8001836:	6f1b      	ldr	r3, [r3, #112]	; 0x70
 8001838:	4a5c      	ldr	r2, [pc, #368]	; (80019ac <HAL_RCC_OscConfig+0x47c>)
 800183a:	f043 0301 	orr.w	r3, r3, #1
 800183e:	6713      	str	r3, [r2, #112]	; 0x70
 8001840:	e00b      	b.n	800185a <HAL_RCC_OscConfig+0x32a>
 8001842:	4b5a      	ldr	r3, [pc, #360]	; (80019ac <HAL_RCC_OscConfig+0x47c>)
 8001844:	6f1b      	ldr	r3, [r3, #112]	; 0x70
 8001846:	4a59      	ldr	r2, [pc, #356]	; (80019ac <HAL_RCC_OscConfig+0x47c>)
 8001848:	f023 0301 	bic.w	r3, r3, #1
 800184c:	6713      	str	r3, [r2, #112]	; 0x70
 800184e:	4b57      	ldr	r3, [pc, #348]	; (80019ac <HAL_RCC_OscConfig+0x47c>)
 8001850:	6f1b      	ldr	r3, [r3, #112]	; 0x70
 8001852:	4a56      	ldr	r2, [pc, #344]	; (80019ac <HAL_RCC_OscConfig+0x47c>)
 8001854:	f023 0304 	bic.w	r3, r3, #4
 8001858:	6713      	str	r3, [r2, #112]	; 0x70
 800185a:	687b      	ldr	r3, [r7, #4]
 800185c:	689b      	ldr	r3, [r3, #8]
 800185e:	2b00      	cmp	r3, #0
 8001860:	d015      	beq.n	800188e <HAL_RCC_OscConfig+0x35e>
 8001862:	f7fe fe99 	bl	8000598 <HAL_GetTick>
 8001866:	6138      	str	r0, [r7, #16]
 8001868:	e00a      	b.n	8001880 <HAL_RCC_OscConfig+0x350>
 800186a:	f7fe fe95 	bl	8000598 <HAL_GetTick>
 800186e:	4602      	mov	r2, r0
 8001870:	693b      	ldr	r3, [r7, #16]
 8001872:	1ad3      	subs	r3, r2, r3
 8001874:	f241 3288 	movw	r2, #5000	; 0x1388
 8001878:	4293      	cmp	r3, r2
 800187a:	d901      	bls.n	8001880 <HAL_RCC_OscConfig+0x350>
 800187c:	2303      	movs	r3, #3
 800187e:	e08e      	b.n	800199e <HAL_RCC_OscConfig+0x46e>
 8001880:	4b4a      	ldr	r3, [pc, #296]	; (80019ac <HAL_RCC_OscConfig+0x47c>)
 8001882:	6f1b      	ldr	r3, [r3, #112]	; 0x70
 8001884:	f003 0302 	and.w	r3, r3, #2
 8001888:	2b00      	cmp	r3, #0
 800188a:	d0ee      	beq.n	800186a <HAL_RCC_OscConfig+0x33a>
 800188c:	e014      	b.n	80018b8 <HAL_RCC_OscConfig+0x388>
 800188e:	f7fe fe83 	bl	8000598 <HAL_GetTick>
 8001892:	6138      	str	r0, [r7, #16]
 8001894:	e00a      	b.n	80018ac <HAL_RCC_OscConfig+0x37c>
 8001896:	f7fe fe7f 	bl	8000598 <HAL_GetTick>
 800189a:	4602      	mov	r2, r0
 800189c:	693b      	ldr	r3, [r7, #16]
 800189e:	1ad3      	subs	r3, r2, r3
 80018a0:	f241 3288 	movw	r2, #5000	; 0x1388
 80018a4:	4293      	cmp	r3, r2
 80018a6:	d901      	bls.n	80018ac <HAL_RCC_OscConfig+0x37c>
 80018a8:	2303      	movs	r3, #3
 80018aa:	e078      	b.n	800199e <HAL_RCC_OscConfig+0x46e>
 80018ac:	4b3f      	ldr	r3, [pc, #252]	; (80019ac <HAL_RCC_OscConfig+0x47c>)
 80018ae:	6f1b      	ldr	r3, [r3, #112]	; 0x70
 80018b0:	f003 0302 	and.w	r3, r3, #2
 80018b4:	2b00      	cmp	r3, #0
 80018b6:	d1ee      	bne.n	8001896 <HAL_RCC_OscConfig+0x366>
 80018b8:	7dfb      	ldrb	r3, [r7, #23]
 80018ba:	2b01      	cmp	r3, #1
 80018bc:	d105      	bne.n	80018ca <HAL_RCC_OscConfig+0x39a>
 80018be:	4b3b      	ldr	r3, [pc, #236]	; (80019ac <HAL_RCC_OscConfig+0x47c>)
 80018c0:	6c1b      	ldr	r3, [r3, #64]	; 0x40
 80018c2:	4a3a      	ldr	r2, [pc, #232]	; (80019ac <HAL_RCC_OscConfig+0x47c>)
 80018c4:	f023 5380 	bic.w	r3, r3, #268435456	; 0x10000000
 80018c8:	6413      	str	r3, [r2, #64]	; 0x40
 80018ca:	687b      	ldr	r3, [r7, #4]
 80018cc:	699b      	ldr	r3, [r3, #24]
 80018ce:	2b00      	cmp	r3, #0
 80018d0:	d064      	beq.n	800199c <HAL_RCC_OscConfig+0x46c>
 80018d2:	4b36      	ldr	r3, [pc, #216]	; (80019ac <HAL_RCC_OscConfig+0x47c>)
 80018d4:	689b      	ldr	r3, [r3, #8]
 80018d6:	f003 030c 	and.w	r3, r3, #12
 80018da:	2b08      	cmp	r3, #8
 80018dc:	d05c      	beq.n	8001998 <HAL_RCC_OscConfig+0x468>
 80018de:	687b      	ldr	r3, [r7, #4]
 80018e0:	699b      	ldr	r3, [r3, #24]
 80018e2:	2b02      	cmp	r3, #2
 80018e4:	d141      	bne.n	800196a <HAL_RCC_OscConfig+0x43a>
 80018e6:	4b32      	ldr	r3, [pc, #200]	; (80019b0 <HAL_RCC_OscConfig+0x480>)
 80018e8:	2200      	movs	r2, #0
 80018ea:	601a      	str	r2, [r3, #0]
 80018ec:	f7fe fe54 	bl	8000598 <HAL_GetTick>
 80018f0:	6138      	str	r0, [r7, #16]
 80018f2:	e008      	b.n	8001906 <HAL_RCC_OscConfig+0x3d6>
 80018f4:	f7fe fe50 	bl	8000598 <HAL_GetTick>
 80018f8:	4602      	mov	r2, r0
 80018fa:	693b      	ldr	r3, [r7, #16]
 80018fc:	1ad3      	subs	r3, r2, r3
 80018fe:	2b02      	cmp	r3, #2
 8001900:	d901      	bls.n	8001906 <HAL_RCC_OscConfig+0x3d6>
 8001902:	2303      	movs	r3, #3
 8001904:	e04b      	b.n	800199e <HAL_RCC_OscConfig+0x46e>
 8001906:	4b29      	ldr	r3, [pc, #164]	; (80019ac <HAL_RCC_OscConfig+0x47c>)
 8001908:	681b      	ldr	r3, [r3, #0]
 800190a:	f003 7300 	and.w	r3, r3, #33554432	; 0x2000000
 800190e:	2b00      	cmp	r3, #0
 8001910:	d1f0      	bne.n	80018f4 <HAL_RCC_OscConfig+0x3c4>
 8001912:	687b      	ldr	r3, [r7, #4]
 8001914:	69da      	ldr	r2, [r3, #28]
 8001916:	687b      	ldr	r3, [r7, #4]
 8001918:	6a1b      	ldr	r3, [r3, #32]
 800191a:	431a      	orrs	r2, r3
 800191c:	687b      	ldr	r3, [r7, #4]
 800191e:	6a5b      	ldr	r3, [r3, #36]	; 0x24
 8001920:	019b      	lsls	r3, r3, #6
 8001922:	431a      	orrs	r2, r3
 8001924:	687b      	ldr	r3, [r7, #4]
 8001926:	6a9b      	ldr	r3, [r3, #40]	; 0x28
 8001928:	085b      	lsrs	r3, r3, #1
 800192a:	3b01      	subs	r3, #1
 800192c:	041b      	lsls	r3, r3, #16
 800192e:	431a      	orrs	r2, r3
 8001930:	687b      	ldr	r3, [r7, #4]
 8001932:	6adb      	ldr	r3, [r3, #44]	; 0x2c
 8001934:	061b      	lsls	r3, r3, #24
 8001936:	491d      	ldr	r1, [pc, #116]	; (80019ac <HAL_RCC_OscConfig+0x47c>)
 8001938:	4313      	orrs	r3, r2
 800193a:	604b      	str	r3, [r1, #4]
 800193c:	4b1c      	ldr	r3, [pc, #112]	; (80019b0 <HAL_RCC_OscConfig+0x480>)
 800193e:	2201      	movs	r2, #1
 8001940:	601a      	str	r2, [r3, #0]
 8001942:	f7fe fe29 	bl	8000598 <HAL_GetTick>
 8001946:	6138      	str	r0, [r7, #16]
 8001948:	e008      	b.n	800195c <HAL_RCC_OscConfig+0x42c>
 800194a:	f7fe fe25 	bl	8000598 <HAL_GetTick>
 800194e:	4602      	mov	r2, r0
 8001950:	693b      	ldr	r3, [r7, #16]
 8001952:	1ad3      	subs	r3, r2, r3
 8001954:	2b02      	cmp	r3, #2
 8001956:	d901      	bls.n	800195c <HAL_RCC_OscConfig+0x42c>
 8001958:	2303      	movs	r3, #3
 800195a:	e020      	b.n	800199e <HAL_RCC_OscConfig+0x46e>
 800195c:	4b13      	ldr	r3, [pc, #76]	; (80019ac <HAL_RCC_OscConfig+0x47c>)
 800195e:	681b      	ldr	r3, [r3, #0]
 8001960:	f003 7300 	and.w	r3, r3, #33554432	; 0x2000000
 8001964:	2b00      	cmp	r3, #0
 8001966:	d0f0      	beq.n	800194a <HAL_RCC_OscConfig+0x41a>
 8001968:	e018      	b.n	800199c <HAL_RCC_OscConfig+0x46c>
 800196a:	4b11      	ldr	r3, [pc, #68]	; (80019b0 <HAL_RCC_OscConfig+0x480>)
 800196c:	2200      	movs	r2, #0
 800196e:	601a      	str	r2, [r3, #0]
 8001970:	f7fe fe12 	bl	8000598 <HAL_GetTick>
 8001974:	6138      	str	r0, [r7, #16]
 8001976:	e008      	b.n	800198a <HAL_RCC_OscConfig+0x45a>
 8001978:	f7fe fe0e 	bl	8000598 <HAL_GetTick>
 800197c:	4602      	mov	r2, r0
 800197e:	693b      	ldr	r3, [r7, #16]
 8001980:	1ad3      	subs	r3, r2, r3
 8001982:	2b02      	cmp	r3, #2
 8001984:	d901      	bls.n	800198a <HAL_RCC_OscConfig+0x45a>
 8001986:	2303      	movs	r3, #3
 8001988:	e009      	b.n	800199e <HAL_RCC_OscConfig+0x46e>
 800198a:	4b08      	ldr	r3, [pc, #32]	; (80019ac <HAL_RCC_OscConfig+0x47c>)
 800198c:	681b      	ldr	r3, [r3, #0]
 800198e:	f003 7300 	and.w	r3, r3, #33554432	; 0x2000000
 8001992:	2b00      	cmp	r3, #0
 8001994:	d1f0      	bne.n	8001978 <HAL_RCC_OscConfig+0x448>
 8001996:	e001      	b.n	800199c <HAL_RCC_OscConfig+0x46c>
 8001998:	2301      	movs	r3, #1
 800199a:	e000      	b.n	800199e <HAL_RCC_OscConfig+0x46e>
 800199c:	2300      	movs	r3, #0
 800199e:	4618      	mov	r0, r3
 80019a0:	3718      	adds	r7, #24
 80019a2:	46bd      	mov	sp, r7
 80019a4:	bd80      	pop	{r7, pc}
 80019a6:	bf00      	nop
 80019a8:	40007000 	.word	0x40007000
 80019ac:	40023800 	.word	0x40023800
 80019b0:	42470060 	.word	0x42470060

080019b4 <HAL_RCC_ClockConfig>:
 80019b4:	b580      	push	{r7, lr}
 80019b6:	b084      	sub	sp, #16
 80019b8:	af00      	add	r7, sp, #0
 80019ba:	6078      	str	r0, [r7, #4]
 80019bc:	6039      	str	r1, [r7, #0]
 80019be:	687b      	ldr	r3, [r7, #4]
 80019c0:	2b00      	cmp	r3, #0
 80019c2:	d101      	bne.n	80019c8 <HAL_RCC_ClockConfig+0x14>
 80019c4:	2301      	movs	r3, #1
 80019c6:	e0ca      	b.n	8001b5e <HAL_RCC_ClockConfig+0x1aa>
 80019c8:	4b67      	ldr	r3, [pc, #412]	; (8001b68 <HAL_RCC_ClockConfig+0x1b4>)
 80019ca:	681b      	ldr	r3, [r3, #0]
 80019cc:	f003 030f 	and.w	r3, r3, #15
 80019d0:	683a      	ldr	r2, [r7, #0]
 80019d2:	429a      	cmp	r2, r3
 80019d4:	d90c      	bls.n	80019f0 <HAL_RCC_ClockConfig+0x3c>
 80019d6:	4b64      	ldr	r3, [pc, #400]	; (8001b68 <HAL_RCC_ClockConfig+0x1b4>)
 80019d8:	683a      	ldr	r2, [r7, #0]
 80019da:	b2d2      	uxtb	r2, r2
 80019dc:	701a      	strb	r2, [r3, #0]
 80019de:	4b62      	ldr	r3, [pc, #392]	; (8001b68 <HAL_RCC_ClockConfig+0x1b4>)
 80019e0:	681b      	ldr	r3, [r3, #0]
 80019e2:	f003 030f 	and.w	r3, r3, #15
 80019e6:	683a      	ldr	r2, [r7, #0]
 80019e8:	429a      	cmp	r2, r3
 80019ea:	d001      	beq.n	80019f0 <HAL_RCC_ClockConfig+0x3c>
 80019ec:	2301      	movs	r3, #1
 80019ee:	e0b6      	b.n	8001b5e <HAL_RCC_ClockConfig+0x1aa>
 80019f0:	687b      	ldr	r3, [r7, #4]
 80019f2:	681b      	ldr	r3, [r3, #0]
 80019f4:	f003 0302 	and.w	r3, r3, #2
 80019f8:	2b00      	cmp	r3, #0
 80019fa:	d020      	beq.n	8001a3e <HAL_RCC_ClockConfig+0x8a>
 80019fc:	687b      	ldr	r3, [r7, #4]
 80019fe:	681b      	ldr	r3, [r3, #0]
 8001a00:	f003 0304 	and.w	r3, r3, #4
 8001a04:	2b00      	cmp	r3, #0
 8001a06:	d005      	beq.n	8001a14 <HAL_RCC_ClockConfig+0x60>
 8001a08:	4b58      	ldr	r3, [pc, #352]	; (8001b6c <HAL_RCC_ClockConfig+0x1b8>)
 8001a0a:	689b      	ldr	r3, [r3, #8]
 8001a0c:	4a57      	ldr	r2, [pc, #348]	; (8001b6c <HAL_RCC_ClockConfig+0x1b8>)
 8001a0e:	f443 53e0 	orr.w	r3, r3, #7168	; 0x1c00
 8001a12:	6093      	str	r3, [r2, #8]
 8001a14:	687b      	ldr	r3, [r7, #4]
 8001a16:	681b      	ldr	r3, [r3, #0]
 8001a18:	f003 0308 	and.w	r3, r3, #8
 8001a1c:	2b00      	cmp	r3, #0
 8001a1e:	d005      	beq.n	8001a2c <HAL_RCC_ClockConfig+0x78>
 8001a20:	4b52      	ldr	r3, [pc, #328]	; (8001b6c <HAL_RCC_ClockConfig+0x1b8>)
 8001a22:	689b      	ldr	r3, [r3, #8]
 8001a24:	4a51      	ldr	r2, [pc, #324]	; (8001b6c <HAL_RCC_ClockConfig+0x1b8>)
 8001a26:	f443 4360 	orr.w	r3, r3, #57344	; 0xe000
 8001a2a:	6093      	str	r3, [r2, #8]
 8001a2c:	4b4f      	ldr	r3, [pc, #316]	; (8001b6c <HAL_RCC_ClockConfig+0x1b8>)
 8001a2e:	689b      	ldr	r3, [r3, #8]
 8001a30:	f023 02f0 	bic.w	r2, r3, #240	; 0xf0
 8001a34:	687b      	ldr	r3, [r7, #4]
 8001a36:	689b      	ldr	r3, [r3, #8]
 8001a38:	494c      	ldr	r1, [pc, #304]	; (8001b6c <HAL_RCC_ClockConfig+0x1b8>)
 8001a3a:	4313      	orrs	r3, r2
 8001a3c:	608b      	str	r3, [r1, #8]
 8001a3e:	687b      	ldr	r3, [r7, #4]
 8001a40:	681b      	ldr	r3, [r3, #0]
 8001a42:	f003 0301 	and.w	r3, r3, #1
 8001a46:	2b00      	cmp	r3, #0
 8001a48:	d044      	beq.n	8001ad4 <HAL_RCC_ClockConfig+0x120>
 8001a4a:	687b      	ldr	r3, [r7, #4]
 8001a4c:	685b      	ldr	r3, [r3, #4]
 8001a4e:	2b01      	cmp	r3, #1
 8001a50:	d107      	bne.n	8001a62 <HAL_RCC_ClockConfig+0xae>
 8001a52:	4b46      	ldr	r3, [pc, #280]	; (8001b6c <HAL_RCC_ClockConfig+0x1b8>)
 8001a54:	681b      	ldr	r3, [r3, #0]
 8001a56:	f403 3300 	and.w	r3, r3, #131072	; 0x20000
 8001a5a:	2b00      	cmp	r3, #0
 8001a5c:	d119      	bne.n	8001a92 <HAL_RCC_ClockConfig+0xde>
 8001a5e:	2301      	movs	r3, #1
 8001a60:	e07d      	b.n	8001b5e <HAL_RCC_ClockConfig+0x1aa>
 8001a62:	687b      	ldr	r3, [r7, #4]
 8001a64:	685b      	ldr	r3, [r3, #4]
 8001a66:	2b02      	cmp	r3, #2
 8001a68:	d003      	beq.n	8001a72 <HAL_RCC_ClockConfig+0xbe>
 8001a6a:	687b      	ldr	r3, [r7, #4]
 8001a6c:	685b      	ldr	r3, [r3, #4]
 8001a6e:	2b03      	cmp	r3, #3
 8001a70:	d107      	bne.n	8001a82 <HAL_RCC_ClockConfig+0xce>
 8001a72:	4b3e      	ldr	r3, [pc, #248]	; (8001b6c <HAL_RCC_ClockConfig+0x1b8>)
 8001a74:	681b      	ldr	r3, [r3, #0]
 8001a76:	f003 7300 	and.w	r3, r3, #33554432	; 0x2000000
 8001a7a:	2b00      	cmp	r3, #0
 8001a7c:	d109      	bne.n	8001a92 <HAL_RCC_ClockConfig+0xde>
 8001a7e:	2301      	movs	r3, #1
 8001a80:	e06d      	b.n	8001b5e <HAL_RCC_ClockConfig+0x1aa>
 8001a82:	4b3a      	ldr	r3, [pc, #232]	; (8001b6c <HAL_RCC_ClockConfig+0x1b8>)
 8001a84:	681b      	ldr	r3, [r3, #0]
 8001a86:	f003 0302 	and.w	r3, r3, #2
 8001a8a:	2b00      	cmp	r3, #0
 8001a8c:	d101      	bne.n	8001a92 <HAL_RCC_ClockConfig+0xde>
 8001a8e:	2301      	movs	r3, #1
 8001a90:	e065      	b.n	8001b5e <HAL_RCC_ClockConfig+0x1aa>
 8001a92:	4b36      	ldr	r3, [pc, #216]	; (8001b6c <HAL_RCC_ClockConfig+0x1b8>)
 8001a94:	689b      	ldr	r3, [r3, #8]
 8001a96:	f023 0203 	bic.w	r2, r3, #3
 8001a9a:	687b      	ldr	r3, [r7, #4]
 8001a9c:	685b      	ldr	r3, [r3, #4]
 8001a9e:	4933      	ldr	r1, [pc, #204]	; (8001b6c <HAL_RCC_ClockConfig+0x1b8>)
 8001aa0:	4313      	orrs	r3, r2
 8001aa2:	608b      	str	r3, [r1, #8]
 8001aa4:	f7fe fd78 	bl	8000598 <HAL_GetTick>
 8001aa8:	60f8      	str	r0, [r7, #12]
 8001aaa:	e00a      	b.n	8001ac2 <HAL_RCC_ClockConfig+0x10e>
 8001aac:	f7fe fd74 	bl	8000598 <HAL_GetTick>
 8001ab0:	4602      	mov	r2, r0
 8001ab2:	68fb      	ldr	r3, [r7, #12]
 8001ab4:	1ad3      	subs	r3, r2, r3
 8001ab6:	f241 3288 	movw	r2, #5000	; 0x1388
 8001aba:	4293      	cmp	r3, r2
 8001abc:	d901      	bls.n	8001ac2 <HAL_RCC_ClockConfig+0x10e>
 8001abe:	2303      	movs	r3, #3
 8001ac0:	e04d      	b.n	8001b5e <HAL_RCC_ClockConfig+0x1aa>
 8001ac2:	4b2a      	ldr	r3, [pc, #168]	; (8001b6c <HAL_RCC_ClockConfig+0x1b8>)
 8001ac4:	689b      	ldr	r3, [r3, #8]
 8001ac6:	f003 020c 	and.w	r2, r3, #12
 8001aca:	687b      	ldr	r3, [r7, #4]
 8001acc:	685b      	ldr	r3, [r3, #4]
 8001ace:	009b      	lsls	r3, r3, #2
 8001ad0:	429a      	cmp	r2, r3
 8001ad2:	d1eb      	bne.n	8001aac <HAL_RCC_ClockConfig+0xf8>
 8001ad4:	4b24      	ldr	r3, [pc, #144]	; (8001b68 <HAL_RCC_ClockConfig+0x1b4>)
 8001ad6:	681b      	ldr	r3, [r3, #0]
 8001ad8:	f003 030f 	and.w	r3, r3, #15
 8001adc:	683a      	ldr	r2, [r7, #0]
 8001ade:	429a      	cmp	r2, r3
 8001ae0:	d20c      	bcs.n	8001afc <HAL_RCC_ClockConfig+0x148>
 8001ae2:	4b21      	ldr	r3, [pc, #132]	; (8001b68 <HAL_RCC_ClockConfig+0x1b4>)
 8001ae4:	683a      	ldr	r2, [r7, #0]
 8001ae6:	b2d2      	uxtb	r2, r2
 8001ae8:	701a      	strb	r2, [r3, #0]
 8001aea:	4b1f      	ldr	r3, [pc, #124]	; (8001b68 <HAL_RCC_ClockConfig+0x1b4>)
 8001aec:	681b      	ldr	r3, [r3, #0]
 8001aee:	f003 030f 	and.w	r3, r3, #15
 8001af2:	683a      	ldr	r2, [r7, #0]
 8001af4:	429a      	cmp	r2, r3
 8001af6:	d001      	beq.n	8001afc <HAL_RCC_ClockConfig+0x148>
 8001af8:	2301      	movs	r3, #1
 8001afa:	e030      	b.n	8001b5e <HAL_RCC_ClockConfig+0x1aa>
 8001afc:	687b      	ldr	r3, [r7, #4]
 8001afe:	681b      	ldr	r3, [r3, #0]
 8001b00:	f003 0304 	and.w	r3, r3, #4
 8001b04:	2b00      	cmp	r3, #0
 8001b06:	d008      	beq.n	8001b1a <HAL_RCC_ClockConfig+0x166>
 8001b08:	4b18      	ldr	r3, [pc, #96]	; (8001b6c <HAL_RCC_ClockConfig+0x1b8>)
 8001b0a:	689b      	ldr	r3, [r3, #8]
 8001b0c:	f423 52e0 	bic.w	r2, r3, #7168	; 0x1c00
 8001b10:	687b      	ldr	r3, [r7, #4]
 8001b12:	68db      	ldr	r3, [r3, #12]
 8001b14:	4915      	ldr	r1, [pc, #84]	; (8001b6c <HAL_RCC_ClockConfig+0x1b8>)
 8001b16:	4313      	orrs	r3, r2
 8001b18:	608b      	str	r3, [r1, #8]
 8001b1a:	687b      	ldr	r3, [r7, #4]
 8001b1c:	681b      	ldr	r3, [r3, #0]
 8001b1e:	f003 0308 	and.w	r3, r3, #8
 8001b22:	2b00      	cmp	r3, #0
 8001b24:	d009      	beq.n	8001b3a <HAL_RCC_ClockConfig+0x186>
 8001b26:	4b11      	ldr	r3, [pc, #68]	; (8001b6c <HAL_RCC_ClockConfig+0x1b8>)
 8001b28:	689b      	ldr	r3, [r3, #8]
 8001b2a:	f423 4260 	bic.w	r2, r3, #57344	; 0xe000
 8001b2e:	687b      	ldr	r3, [r7, #4]
 8001b30:	691b      	ldr	r3, [r3, #16]
 8001b32:	00db      	lsls	r3, r3, #3
 8001b34:	490d      	ldr	r1, [pc, #52]	; (8001b6c <HAL_RCC_ClockConfig+0x1b8>)
 8001b36:	4313      	orrs	r3, r2
 8001b38:	608b      	str	r3, [r1, #8]
 8001b3a:	f000 f81d 	bl	8001b78 <HAL_RCC_GetSysClockFreq>
 8001b3e:	4601      	mov	r1, r0
 8001b40:	4b0a      	ldr	r3, [pc, #40]	; (8001b6c <HAL_RCC_ClockConfig+0x1b8>)
 8001b42:	689b      	ldr	r3, [r3, #8]
 8001b44:	091b      	lsrs	r3, r3, #4
 8001b46:	f003 030f 	and.w	r3, r3, #15
 8001b4a:	4a09      	ldr	r2, [pc, #36]	; (8001b70 <HAL_RCC_ClockConfig+0x1bc>)
 8001b4c:	5cd3      	ldrb	r3, [r2, r3]
 8001b4e:	fa21 f303 	lsr.w	r3, r1, r3
 8001b52:	4a08      	ldr	r2, [pc, #32]	; (8001b74 <HAL_RCC_ClockConfig+0x1c0>)
 8001b54:	6013      	str	r3, [r2, #0]
 8001b56:	200f      	movs	r0, #15
 8001b58:	f7fe fcda 	bl	8000510 <HAL_InitTick>
 8001b5c:	2300      	movs	r3, #0
 8001b5e:	4618      	mov	r0, r3
 8001b60:	3710      	adds	r7, #16
 8001b62:	46bd      	mov	sp, r7
 8001b64:	bd80      	pop	{r7, pc}
 8001b66:	bf00      	nop
 8001b68:	40023c00 	.word	0x40023c00
 8001b6c:	40023800 	.word	0x40023800
 8001b70:	080090bc 	.word	0x080090bc
 8001b74:	20000020 	.word	0x20000020

08001b78 <HAL_RCC_GetSysClockFreq>:
 8001b78:	b5f0      	push	{r4, r5, r6, r7, lr}
 8001b7a:	b085      	sub	sp, #20
 8001b7c:	af00      	add	r7, sp, #0
 8001b7e:	2300      	movs	r3, #0
 8001b80:	607b      	str	r3, [r7, #4]
 8001b82:	2300      	movs	r3, #0
 8001b84:	60fb      	str	r3, [r7, #12]
 8001b86:	2300      	movs	r3, #0
 8001b88:	603b      	str	r3, [r7, #0]
 8001b8a:	2300      	movs	r3, #0
 8001b8c:	60bb      	str	r3, [r7, #8]
 8001b8e:	4b63      	ldr	r3, [pc, #396]	; (8001d1c <HAL_RCC_GetSysClockFreq+0x1a4>)
 8001b90:	689b      	ldr	r3, [r3, #8]
 8001b92:	f003 030c 	and.w	r3, r3, #12
 8001b96:	2b04      	cmp	r3, #4
 8001b98:	d007      	beq.n	8001baa <HAL_RCC_GetSysClockFreq+0x32>
 8001b9a:	2b08      	cmp	r3, #8
 8001b9c:	d008      	beq.n	8001bb0 <HAL_RCC_GetSysClockFreq+0x38>
 8001b9e:	2b00      	cmp	r3, #0
 8001ba0:	f040 80b4 	bne.w	8001d0c <HAL_RCC_GetSysClockFreq+0x194>
 8001ba4:	4b5e      	ldr	r3, [pc, #376]	; (8001d20 <HAL_RCC_GetSysClockFreq+0x1a8>)
 8001ba6:	60bb      	str	r3, [r7, #8]
 8001ba8:	e0b3      	b.n	8001d12 <HAL_RCC_GetSysClockFreq+0x19a>
 8001baa:	4b5e      	ldr	r3, [pc, #376]	; (8001d24 <HAL_RCC_GetSysClockFreq+0x1ac>)
 8001bac:	60bb      	str	r3, [r7, #8]
 8001bae:	e0b0      	b.n	8001d12 <HAL_RCC_GetSysClockFreq+0x19a>
 8001bb0:	4b5a      	ldr	r3, [pc, #360]	; (8001d1c <HAL_RCC_GetSysClockFreq+0x1a4>)
 8001bb2:	685b      	ldr	r3, [r3, #4]
 8001bb4:	f003 033f 	and.w	r3, r3, #63	; 0x3f
 8001bb8:	607b      	str	r3, [r7, #4]
 8001bba:	4b58      	ldr	r3, [pc, #352]	; (8001d1c <HAL_RCC_GetSysClockFreq+0x1a4>)
 8001bbc:	685b      	ldr	r3, [r3, #4]
 8001bbe:	f403 0380 	and.w	r3, r3, #4194304	; 0x400000
 8001bc2:	2b00      	cmp	r3, #0
 8001bc4:	d04a      	beq.n	8001c5c <HAL_RCC_GetSysClockFreq+0xe4>
 8001bc6:	4b55      	ldr	r3, [pc, #340]	; (8001d1c <HAL_RCC_GetSysClockFreq+0x1a4>)
 8001bc8:	685b      	ldr	r3, [r3, #4]
 8001bca:	099b      	lsrs	r3, r3, #6
 8001bcc:	f04f 0400 	mov.w	r4, #0
 8001bd0:	f240 11ff 	movw	r1, #511	; 0x1ff
 8001bd4:	f04f 0200 	mov.w	r2, #0
 8001bd8:	ea03 0501 	and.w	r5, r3, r1
 8001bdc:	ea04 0602 	and.w	r6, r4, r2
 8001be0:	4629      	mov	r1, r5
 8001be2:	4632      	mov	r2, r6
 8001be4:	f04f 0300 	mov.w	r3, #0
 8001be8:	f04f 0400 	mov.w	r4, #0
 8001bec:	0154      	lsls	r4, r2, #5
 8001bee:	ea44 64d1 	orr.w	r4, r4, r1, lsr #27
 8001bf2:	014b      	lsls	r3, r1, #5
 8001bf4:	4619      	mov	r1, r3
 8001bf6:	4622      	mov	r2, r4
 8001bf8:	1b49      	subs	r1, r1, r5
 8001bfa:	eb62 0206 	sbc.w	r2, r2, r6
 8001bfe:	f04f 0300 	mov.w	r3, #0
 8001c02:	f04f 0400 	mov.w	r4, #0
 8001c06:	0194      	lsls	r4, r2, #6
 8001c08:	ea44 6491 	orr.w	r4, r4, r1, lsr #26
 8001c0c:	018b      	lsls	r3, r1, #6
 8001c0e:	1a5b      	subs	r3, r3, r1
 8001c10:	eb64 0402 	sbc.w	r4, r4, r2
 8001c14:	f04f 0100 	mov.w	r1, #0
 8001c18:	f04f 0200 	mov.w	r2, #0
 8001c1c:	00e2      	lsls	r2, r4, #3
 8001c1e:	ea42 7253 	orr.w	r2, r2, r3, lsr #29
 8001c22:	00d9      	lsls	r1, r3, #3
 8001c24:	460b      	mov	r3, r1
 8001c26:	4614      	mov	r4, r2
 8001c28:	195b      	adds	r3, r3, r5
 8001c2a:	eb44 0406 	adc.w	r4, r4, r6
 8001c2e:	f04f 0100 	mov.w	r1, #0
 8001c32:	f04f 0200 	mov.w	r2, #0
 8001c36:	0262      	lsls	r2, r4, #9
 8001c38:	ea42 52d3 	orr.w	r2, r2, r3, lsr #23
 8001c3c:	0259      	lsls	r1, r3, #9
 8001c3e:	460b      	mov	r3, r1
 8001c40:	4614      	mov	r4, r2
 8001c42:	4618      	mov	r0, r3
 8001c44:	4621      	mov	r1, r4
 8001c46:	687b      	ldr	r3, [r7, #4]
 8001c48:	f04f 0400 	mov.w	r4, #0
 8001c4c:	461a      	mov	r2, r3
 8001c4e:	4623      	mov	r3, r4
 8001c50:	f7fe fac2 	bl	80001d8 <__aeabi_uldivmod>
 8001c54:	4603      	mov	r3, r0
 8001c56:	460c      	mov	r4, r1
 8001c58:	60fb      	str	r3, [r7, #12]
 8001c5a:	e049      	b.n	8001cf0 <HAL_RCC_GetSysClockFreq+0x178>
 8001c5c:	4b2f      	ldr	r3, [pc, #188]	; (8001d1c <HAL_RCC_GetSysClockFreq+0x1a4>)
 8001c5e:	685b      	ldr	r3, [r3, #4]
 8001c60:	099b      	lsrs	r3, r3, #6
 8001c62:	f04f 0400 	mov.w	r4, #0
 8001c66:	f240 11ff 	movw	r1, #511	; 0x1ff
 8001c6a:	f04f 0200 	mov.w	r2, #0
 8001c6e:	ea03 0501 	and.w	r5, r3, r1
 8001c72:	ea04 0602 	and.w	r6, r4, r2
 8001c76:	4629      	mov	r1, r5
 8001c78:	4632      	mov	r2, r6
 8001c7a:	f04f 0300 	mov.w	r3, #0
 8001c7e:	f04f 0400 	mov.w	r4, #0
 8001c82:	0154      	lsls	r4, r2, #5
 8001c84:	ea44 64d1 	orr.w	r4, r4, r1, lsr #27
 8001c88:	014b      	lsls	r3, r1, #5
 8001c8a:	4619      	mov	r1, r3
 8001c8c:	4622      	mov	r2, r4
 8001c8e:	1b49      	subs	r1, r1, r5
 8001c90:	eb62 0206 	sbc.w	r2, r2, r6
 8001c94:	f04f 0300 	mov.w	r3, #0
 8001c98:	f04f 0400 	mov.w	r4, #0
 8001c9c:	0194      	lsls	r4, r2, #6
 8001c9e:	ea44 6491 	orr.w	r4, r4, r1, lsr #26
 8001ca2:	018b      	lsls	r3, r1, #6
 8001ca4:	1a5b      	subs	r3, r3, r1
 8001ca6:	eb64 0402 	sbc.w	r4, r4, r2
 8001caa:	f04f 0100 	mov.w	r1, #0
 8001cae:	f04f 0200 	mov.w	r2, #0
 8001cb2:	00e2      	lsls	r2, r4, #3
 8001cb4:	ea42 7253 	orr.w	r2, r2, r3, lsr #29
 8001cb8:	00d9      	lsls	r1, r3, #3
 8001cba:	460b      	mov	r3, r1
 8001cbc:	4614      	mov	r4, r2
 8001cbe:	195b      	adds	r3, r3, r5
 8001cc0:	eb44 0406 	adc.w	r4, r4, r6
 8001cc4:	f04f 0100 	mov.w	r1, #0
 8001cc8:	f04f 0200 	mov.w	r2, #0
 8001ccc:	02a2      	lsls	r2, r4, #10
 8001cce:	ea42 5293 	orr.w	r2, r2, r3, lsr #22
 8001cd2:	0299      	lsls	r1, r3, #10
 8001cd4:	460b      	mov	r3, r1
 8001cd6:	4614      	mov	r4, r2
 8001cd8:	4618      	mov	r0, r3
 8001cda:	4621      	mov	r1, r4
 8001cdc:	687b      	ldr	r3, [r7, #4]
 8001cde:	f04f 0400 	mov.w	r4, #0
 8001ce2:	461a      	mov	r2, r3
 8001ce4:	4623      	mov	r3, r4
 8001ce6:	f7fe fa77 	bl	80001d8 <__aeabi_uldivmod>
 8001cea:	4603      	mov	r3, r0
 8001cec:	460c      	mov	r4, r1
 8001cee:	60fb      	str	r3, [r7, #12]
 8001cf0:	4b0a      	ldr	r3, [pc, #40]	; (8001d1c <HAL_RCC_GetSysClockFreq+0x1a4>)
 8001cf2:	685b      	ldr	r3, [r3, #4]
 8001cf4:	0c1b      	lsrs	r3, r3, #16
 8001cf6:	f003 0303 	and.w	r3, r3, #3
 8001cfa:	3301      	adds	r3, #1
 8001cfc:	005b      	lsls	r3, r3, #1
 8001cfe:	603b      	str	r3, [r7, #0]
 8001d00:	68fa      	ldr	r2, [r7, #12]
 8001d02:	683b      	ldr	r3, [r7, #0]
 8001d04:	fbb2 f3f3 	udiv	r3, r2, r3
 8001d08:	60bb      	str	r3, [r7, #8]
 8001d0a:	e002      	b.n	8001d12 <HAL_RCC_GetSysClockFreq+0x19a>
 8001d0c:	4b04      	ldr	r3, [pc, #16]	; (8001d20 <HAL_RCC_GetSysClockFreq+0x1a8>)
 8001d0e:	60bb      	str	r3, [r7, #8]
 8001d10:	bf00      	nop
 8001d12:	68bb      	ldr	r3, [r7, #8]
 8001d14:	4618      	mov	r0, r3
 8001d16:	3714      	adds	r7, #20
 8001d18:	46bd      	mov	sp, r7
 8001d1a:	bdf0      	pop	{r4, r5, r6, r7, pc}
 8001d1c:	40023800 	.word	0x40023800
 8001d20:	00f42400 	.word	0x00f42400
 8001d24:	007a1200 	.word	0x007a1200

08001d28 <HAL_RCC_GetHCLKFreq>:
 8001d28:	b480      	push	{r7}
 8001d2a:	af00      	add	r7, sp, #0
 8001d2c:	4b03      	ldr	r3, [pc, #12]	; (8001d3c <HAL_RCC_GetHCLKFreq+0x14>)
 8001d2e:	681b      	ldr	r3, [r3, #0]
 8001d30:	4618      	mov	r0, r3
 8001d32:	46bd      	mov	sp, r7
 8001d34:	f85d 7b04 	ldr.w	r7, [sp], #4
 8001d38:	4770      	bx	lr
 8001d3a:	bf00      	nop
 8001d3c:	20000020 	.word	0x20000020

08001d40 <HAL_RCC_GetPCLK1Freq>:
 8001d40:	b580      	push	{r7, lr}
 8001d42:	af00      	add	r7, sp, #0
 8001d44:	f7ff fff0 	bl	8001d28 <HAL_RCC_GetHCLKFreq>
 8001d48:	4601      	mov	r1, r0
 8001d4a:	4b05      	ldr	r3, [pc, #20]	; (8001d60 <HAL_RCC_GetPCLK1Freq+0x20>)
 8001d4c:	689b      	ldr	r3, [r3, #8]
 8001d4e:	0a9b      	lsrs	r3, r3, #10
 8001d50:	f003 0307 	and.w	r3, r3, #7
 8001d54:	4a03      	ldr	r2, [pc, #12]	; (8001d64 <HAL_RCC_GetPCLK1Freq+0x24>)
 8001d56:	5cd3      	ldrb	r3, [r2, r3]
 8001d58:	fa21 f303 	lsr.w	r3, r1, r3
 8001d5c:	4618      	mov	r0, r3
 8001d5e:	bd80      	pop	{r7, pc}
 8001d60:	40023800 	.word	0x40023800
 8001d64:	080090cc 	.word	0x080090cc

08001d68 <HAL_RCC_GetPCLK2Freq>:
 8001d68:	b580      	push	{r7, lr}
 8001d6a:	af00      	add	r7, sp, #0
 8001d6c:	f7ff ffdc 	bl	8001d28 <HAL_RCC_GetHCLKFreq>
 8001d70:	4601      	mov	r1, r0
 8001d72:	4b05      	ldr	r3, [pc, #20]	; (8001d88 <HAL_RCC_GetPCLK2Freq+0x20>)
 8001d74:	689b      	ldr	r3, [r3, #8]
 8001d76:	0b5b      	lsrs	r3, r3, #13
 8001d78:	f003 0307 	and.w	r3, r3, #7
 8001d7c:	4a03      	ldr	r2, [pc, #12]	; (8001d8c <HAL_RCC_GetPCLK2Freq+0x24>)
 8001d7e:	5cd3      	ldrb	r3, [r2, r3]
 8001d80:	fa21 f303 	lsr.w	r3, r1, r3
 8001d84:	4618      	mov	r0, r3
 8001d86:	bd80      	pop	{r7, pc}
 8001d88:	40023800 	.word	0x40023800
 8001d8c:	080090cc 	.word	0x080090cc

08001d90 <HAL_RCCEx_PeriphCLKConfig>:
 8001d90:	b580      	push	{r7, lr}
 8001d92:	b086      	sub	sp, #24
 8001d94:	af00      	add	r7, sp, #0
 8001d96:	6078      	str	r0, [r7, #4]
 8001d98:	2300      	movs	r3, #0
 8001d9a:	617b      	str	r3, [r7, #20]
 8001d9c:	2300      	movs	r3, #0
 8001d9e:	613b      	str	r3, [r7, #16]
 8001da0:	687b      	ldr	r3, [r7, #4]
 8001da2:	681b      	ldr	r3, [r3, #0]
 8001da4:	f003 0301 	and.w	r3, r3, #1
 8001da8:	2b00      	cmp	r3, #0
 8001daa:	d105      	bne.n	8001db8 <HAL_RCCEx_PeriphCLKConfig+0x28>
 8001dac:	687b      	ldr	r3, [r7, #4]
 8001dae:	681b      	ldr	r3, [r3, #0]
 8001db0:	f003 0304 	and.w	r3, r3, #4
 8001db4:	2b00      	cmp	r3, #0
 8001db6:	d035      	beq.n	8001e24 <HAL_RCCEx_PeriphCLKConfig+0x94>
 8001db8:	4b62      	ldr	r3, [pc, #392]	; (8001f44 <HAL_RCCEx_PeriphCLKConfig+0x1b4>)
 8001dba:	2200      	movs	r2, #0
 8001dbc:	601a      	str	r2, [r3, #0]
 8001dbe:	f7fe fbeb 	bl	8000598 <HAL_GetTick>
 8001dc2:	6178      	str	r0, [r7, #20]
 8001dc4:	e008      	b.n	8001dd8 <HAL_RCCEx_PeriphCLKConfig+0x48>
 8001dc6:	f7fe fbe7 	bl	8000598 <HAL_GetTick>
 8001dca:	4602      	mov	r2, r0
 8001dcc:	697b      	ldr	r3, [r7, #20]
 8001dce:	1ad3      	subs	r3, r2, r3
 8001dd0:	2b02      	cmp	r3, #2
 8001dd2:	d901      	bls.n	8001dd8 <HAL_RCCEx_PeriphCLKConfig+0x48>
 8001dd4:	2303      	movs	r3, #3
 8001dd6:	e0b0      	b.n	8001f3a <HAL_RCCEx_PeriphCLKConfig+0x1aa>
 8001dd8:	4b5b      	ldr	r3, [pc, #364]	; (8001f48 <HAL_RCCEx_PeriphCLKConfig+0x1b8>)
 8001dda:	681b      	ldr	r3, [r3, #0]
 8001ddc:	f003 6300 	and.w	r3, r3, #134217728	; 0x8000000
 8001de0:	2b00      	cmp	r3, #0
 8001de2:	d1f0      	bne.n	8001dc6 <HAL_RCCEx_PeriphCLKConfig+0x36>
 8001de4:	687b      	ldr	r3, [r7, #4]
 8001de6:	685b      	ldr	r3, [r3, #4]
 8001de8:	019a      	lsls	r2, r3, #6
 8001dea:	687b      	ldr	r3, [r7, #4]
 8001dec:	689b      	ldr	r3, [r3, #8]
 8001dee:	071b      	lsls	r3, r3, #28
 8001df0:	4955      	ldr	r1, [pc, #340]	; (8001f48 <HAL_RCCEx_PeriphCLKConfig+0x1b8>)
 8001df2:	4313      	orrs	r3, r2
 8001df4:	f8c1 3084 	str.w	r3, [r1, #132]	; 0x84
 8001df8:	4b52      	ldr	r3, [pc, #328]	; (8001f44 <HAL_RCCEx_PeriphCLKConfig+0x1b4>)
 8001dfa:	2201      	movs	r2, #1
 8001dfc:	601a      	str	r2, [r3, #0]
 8001dfe:	f7fe fbcb 	bl	8000598 <HAL_GetTick>
 8001e02:	6178      	str	r0, [r7, #20]
 8001e04:	e008      	b.n	8001e18 <HAL_RCCEx_PeriphCLKConfig+0x88>
 8001e06:	f7fe fbc7 	bl	8000598 <HAL_GetTick>
 8001e0a:	4602      	mov	r2, r0
 8001e0c:	697b      	ldr	r3, [r7, #20]
 8001e0e:	1ad3      	subs	r3, r2, r3
 8001e10:	2b02      	cmp	r3, #2
 8001e12:	d901      	bls.n	8001e18 <HAL_RCCEx_PeriphCLKConfig+0x88>
 8001e14:	2303      	movs	r3, #3
 8001e16:	e090      	b.n	8001f3a <HAL_RCCEx_PeriphCLKConfig+0x1aa>
 8001e18:	4b4b      	ldr	r3, [pc, #300]	; (8001f48 <HAL_RCCEx_PeriphCLKConfig+0x1b8>)
 8001e1a:	681b      	ldr	r3, [r3, #0]
 8001e1c:	f003 6300 	and.w	r3, r3, #134217728	; 0x8000000
 8001e20:	2b00      	cmp	r3, #0
 8001e22:	d0f0      	beq.n	8001e06 <HAL_RCCEx_PeriphCLKConfig+0x76>
 8001e24:	687b      	ldr	r3, [r7, #4]
 8001e26:	681b      	ldr	r3, [r3, #0]
 8001e28:	f003 0302 	and.w	r3, r3, #2
 8001e2c:	2b00      	cmp	r3, #0
 8001e2e:	f000 8083 	beq.w	8001f38 <HAL_RCCEx_PeriphCLKConfig+0x1a8>
 8001e32:	2300      	movs	r3, #0
 8001e34:	60fb      	str	r3, [r7, #12]
 8001e36:	4b44      	ldr	r3, [pc, #272]	; (8001f48 <HAL_RCCEx_PeriphCLKConfig+0x1b8>)
 8001e38:	6c1b      	ldr	r3, [r3, #64]	; 0x40
 8001e3a:	4a43      	ldr	r2, [pc, #268]	; (8001f48 <HAL_RCCEx_PeriphCLKConfig+0x1b8>)
 8001e3c:	f043 5380 	orr.w	r3, r3, #268435456	; 0x10000000
 8001e40:	6413      	str	r3, [r2, #64]	; 0x40
 8001e42:	4b41      	ldr	r3, [pc, #260]	; (8001f48 <HAL_RCCEx_PeriphCLKConfig+0x1b8>)
 8001e44:	6c1b      	ldr	r3, [r3, #64]	; 0x40
 8001e46:	f003 5380 	and.w	r3, r3, #268435456	; 0x10000000
 8001e4a:	60fb      	str	r3, [r7, #12]
 8001e4c:	68fb      	ldr	r3, [r7, #12]
 8001e4e:	4b3f      	ldr	r3, [pc, #252]	; (8001f4c <HAL_RCCEx_PeriphCLKConfig+0x1bc>)
 8001e50:	681b      	ldr	r3, [r3, #0]
 8001e52:	4a3e      	ldr	r2, [pc, #248]	; (8001f4c <HAL_RCCEx_PeriphCLKConfig+0x1bc>)
 8001e54:	f443 7380 	orr.w	r3, r3, #256	; 0x100
 8001e58:	6013      	str	r3, [r2, #0]
 8001e5a:	f7fe fb9d 	bl	8000598 <HAL_GetTick>
 8001e5e:	6178      	str	r0, [r7, #20]
 8001e60:	e008      	b.n	8001e74 <HAL_RCCEx_PeriphCLKConfig+0xe4>
 8001e62:	f7fe fb99 	bl	8000598 <HAL_GetTick>
 8001e66:	4602      	mov	r2, r0
 8001e68:	697b      	ldr	r3, [r7, #20]
 8001e6a:	1ad3      	subs	r3, r2, r3
 8001e6c:	2b02      	cmp	r3, #2
 8001e6e:	d901      	bls.n	8001e74 <HAL_RCCEx_PeriphCLKConfig+0xe4>
 8001e70:	2303      	movs	r3, #3
 8001e72:	e062      	b.n	8001f3a <HAL_RCCEx_PeriphCLKConfig+0x1aa>
 8001e74:	4b35      	ldr	r3, [pc, #212]	; (8001f4c <HAL_RCCEx_PeriphCLKConfig+0x1bc>)
 8001e76:	681b      	ldr	r3, [r3, #0]
 8001e78:	f403 7380 	and.w	r3, r3, #256	; 0x100
 8001e7c:	2b00      	cmp	r3, #0
 8001e7e:	d0f0      	beq.n	8001e62 <HAL_RCCEx_PeriphCLKConfig+0xd2>
 8001e80:	4b31      	ldr	r3, [pc, #196]	; (8001f48 <HAL_RCCEx_PeriphCLKConfig+0x1b8>)
 8001e82:	6f1b      	ldr	r3, [r3, #112]	; 0x70
 8001e84:	f403 7340 	and.w	r3, r3, #768	; 0x300
 8001e88:	613b      	str	r3, [r7, #16]
 8001e8a:	693b      	ldr	r3, [r7, #16]
 8001e8c:	2b00      	cmp	r3, #0
 8001e8e:	d02f      	beq.n	8001ef0 <HAL_RCCEx_PeriphCLKConfig+0x160>
 8001e90:	687b      	ldr	r3, [r7, #4]
 8001e92:	68db      	ldr	r3, [r3, #12]
 8001e94:	f403 7340 	and.w	r3, r3, #768	; 0x300
 8001e98:	693a      	ldr	r2, [r7, #16]
 8001e9a:	429a      	cmp	r2, r3
 8001e9c:	d028      	beq.n	8001ef0 <HAL_RCCEx_PeriphCLKConfig+0x160>
 8001e9e:	4b2a      	ldr	r3, [pc, #168]	; (8001f48 <HAL_RCCEx_PeriphCLKConfig+0x1b8>)
 8001ea0:	6f1b      	ldr	r3, [r3, #112]	; 0x70
 8001ea2:	f423 7340 	bic.w	r3, r3, #768	; 0x300
 8001ea6:	613b      	str	r3, [r7, #16]
 8001ea8:	4b29      	ldr	r3, [pc, #164]	; (8001f50 <HAL_RCCEx_PeriphCLKConfig+0x1c0>)
 8001eaa:	2201      	movs	r2, #1
 8001eac:	601a      	str	r2, [r3, #0]
 8001eae:	4b28      	ldr	r3, [pc, #160]	; (8001f50 <HAL_RCCEx_PeriphCLKConfig+0x1c0>)
 8001eb0:	2200      	movs	r2, #0
 8001eb2:	601a      	str	r2, [r3, #0]
 8001eb4:	4a24      	ldr	r2, [pc, #144]	; (8001f48 <HAL_RCCEx_PeriphCLKConfig+0x1b8>)
 8001eb6:	693b      	ldr	r3, [r7, #16]
 8001eb8:	6713      	str	r3, [r2, #112]	; 0x70
 8001eba:	4b23      	ldr	r3, [pc, #140]	; (8001f48 <HAL_RCCEx_PeriphCLKConfig+0x1b8>)
 8001ebc:	6f1b      	ldr	r3, [r3, #112]	; 0x70
 8001ebe:	f003 0301 	and.w	r3, r3, #1
 8001ec2:	2b00      	cmp	r3, #0
 8001ec4:	d014      	beq.n	8001ef0 <HAL_RCCEx_PeriphCLKConfig+0x160>
 8001ec6:	f7fe fb67 	bl	8000598 <HAL_GetTick>
 8001eca:	6178      	str	r0, [r7, #20]
 8001ecc:	e00a      	b.n	8001ee4 <HAL_RCCEx_PeriphCLKConfig+0x154>
 8001ece:	f7fe fb63 	bl	8000598 <HAL_GetTick>
 8001ed2:	4602      	mov	r2, r0
 8001ed4:	697b      	ldr	r3, [r7, #20]
 8001ed6:	1ad3      	subs	r3, r2, r3
 8001ed8:	f241 3288 	movw	r2, #5000	; 0x1388
 8001edc:	4293      	cmp	r3, r2
 8001ede:	d901      	bls.n	8001ee4 <HAL_RCCEx_PeriphCLKConfig+0x154>
 8001ee0:	2303      	movs	r3, #3
 8001ee2:	e02a      	b.n	8001f3a <HAL_RCCEx_PeriphCLKConfig+0x1aa>
 8001ee4:	4b18      	ldr	r3, [pc, #96]	; (8001f48 <HAL_RCCEx_PeriphCLKConfig+0x1b8>)
 8001ee6:	6f1b      	ldr	r3, [r3, #112]	; 0x70
 8001ee8:	f003 0302 	and.w	r3, r3, #2
 8001eec:	2b00      	cmp	r3, #0
 8001eee:	d0ee      	beq.n	8001ece <HAL_RCCEx_PeriphCLKConfig+0x13e>
 8001ef0:	687b      	ldr	r3, [r7, #4]
 8001ef2:	68db      	ldr	r3, [r3, #12]
 8001ef4:	f403 7340 	and.w	r3, r3, #768	; 0x300
 8001ef8:	f5b3 7f40 	cmp.w	r3, #768	; 0x300
 8001efc:	d10d      	bne.n	8001f1a <HAL_RCCEx_PeriphCLKConfig+0x18a>
 8001efe:	4b12      	ldr	r3, [pc, #72]	; (8001f48 <HAL_RCCEx_PeriphCLKConfig+0x1b8>)
 8001f00:	689b      	ldr	r3, [r3, #8]
 8001f02:	f423 12f8 	bic.w	r2, r3, #2031616	; 0x1f0000
 8001f06:	687b      	ldr	r3, [r7, #4]
 8001f08:	68db      	ldr	r3, [r3, #12]
 8001f0a:	f023 4370 	bic.w	r3, r3, #4026531840	; 0xf0000000
 8001f0e:	f423 7340 	bic.w	r3, r3, #768	; 0x300
 8001f12:	490d      	ldr	r1, [pc, #52]	; (8001f48 <HAL_RCCEx_PeriphCLKConfig+0x1b8>)
 8001f14:	4313      	orrs	r3, r2
 8001f16:	608b      	str	r3, [r1, #8]
 8001f18:	e005      	b.n	8001f26 <HAL_RCCEx_PeriphCLKConfig+0x196>
 8001f1a:	4b0b      	ldr	r3, [pc, #44]	; (8001f48 <HAL_RCCEx_PeriphCLKConfig+0x1b8>)
 8001f1c:	689b      	ldr	r3, [r3, #8]
 8001f1e:	4a0a      	ldr	r2, [pc, #40]	; (8001f48 <HAL_RCCEx_PeriphCLKConfig+0x1b8>)
 8001f20:	f423 13f8 	bic.w	r3, r3, #2031616	; 0x1f0000
 8001f24:	6093      	str	r3, [r2, #8]
 8001f26:	4b08      	ldr	r3, [pc, #32]	; (8001f48 <HAL_RCCEx_PeriphCLKConfig+0x1b8>)
 8001f28:	6f1a      	ldr	r2, [r3, #112]	; 0x70
 8001f2a:	687b      	ldr	r3, [r7, #4]
 8001f2c:	68db      	ldr	r3, [r3, #12]
 8001f2e:	f3c3 030b 	ubfx	r3, r3, #0, #12
 8001f32:	4905      	ldr	r1, [pc, #20]	; (8001f48 <HAL_RCCEx_PeriphCLKConfig+0x1b8>)
 8001f34:	4313      	orrs	r3, r2
 8001f36:	670b      	str	r3, [r1, #112]	; 0x70
 8001f38:	2300      	movs	r3, #0
 8001f3a:	4618      	mov	r0, r3
 8001f3c:	3718      	adds	r7, #24
 8001f3e:	46bd      	mov	sp, r7
 8001f40:	bd80      	pop	{r7, pc}
 8001f42:	bf00      	nop
 8001f44:	42470068 	.word	0x42470068
 8001f48:	40023800 	.word	0x40023800
 8001f4c:	40007000 	.word	0x40007000
 8001f50:	42470e40 	.word	0x42470e40

08001f54 <HAL_TIM_Base_Init>:
 8001f54:	b580      	push	{r7, lr}
 8001f56:	b082      	sub	sp, #8
 8001f58:	af00      	add	r7, sp, #0
 8001f5a:	6078      	str	r0, [r7, #4]
 8001f5c:	687b      	ldr	r3, [r7, #4]
 8001f5e:	2b00      	cmp	r3, #0
 8001f60:	d101      	bne.n	8001f66 <HAL_TIM_Base_Init+0x12>
 8001f62:	2301      	movs	r3, #1
 8001f64:	e01d      	b.n	8001fa2 <HAL_TIM_Base_Init+0x4e>
 8001f66:	687b      	ldr	r3, [r7, #4]
 8001f68:	f893 3039 	ldrb.w	r3, [r3, #57]	; 0x39
 8001f6c:	b2db      	uxtb	r3, r3
 8001f6e:	2b00      	cmp	r3, #0
 8001f70:	d106      	bne.n	8001f80 <HAL_TIM_Base_Init+0x2c>
 8001f72:	687b      	ldr	r3, [r7, #4]
 8001f74:	2200      	movs	r2, #0
 8001f76:	f883 2038 	strb.w	r2, [r3, #56]	; 0x38
 8001f7a:	6878      	ldr	r0, [r7, #4]
 8001f7c:	f000 f815 	bl	8001faa <HAL_TIM_Base_MspInit>
 8001f80:	687b      	ldr	r3, [r7, #4]
 8001f82:	2202      	movs	r2, #2
 8001f84:	f883 2039 	strb.w	r2, [r3, #57]	; 0x39
 8001f88:	687b      	ldr	r3, [r7, #4]
 8001f8a:	681a      	ldr	r2, [r3, #0]
 8001f8c:	687b      	ldr	r3, [r7, #4]
 8001f8e:	3304      	adds	r3, #4
 8001f90:	4619      	mov	r1, r3
 8001f92:	4610      	mov	r0, r2
 8001f94:	f000 fa3a 	bl	800240c <TIM_Base_SetConfig>
 8001f98:	687b      	ldr	r3, [r7, #4]
 8001f9a:	2201      	movs	r2, #1
 8001f9c:	f883 2039 	strb.w	r2, [r3, #57]	; 0x39
 8001fa0:	2300      	movs	r3, #0
 8001fa2:	4618      	mov	r0, r3
 8001fa4:	3708      	adds	r7, #8
 8001fa6:	46bd      	mov	sp, r7
 8001fa8:	bd80      	pop	{r7, pc}

08001faa <HAL_TIM_Base_MspInit>:
 8001faa:	b480      	push	{r7}
 8001fac:	b083      	sub	sp, #12
 8001fae:	af00      	add	r7, sp, #0
 8001fb0:	6078      	str	r0, [r7, #4]
 8001fb2:	bf00      	nop
 8001fb4:	370c      	adds	r7, #12
 8001fb6:	46bd      	mov	sp, r7
 8001fb8:	f85d 7b04 	ldr.w	r7, [sp], #4
 8001fbc:	4770      	bx	lr

08001fbe <HAL_TIM_Base_Start>:
 8001fbe:	b480      	push	{r7}
 8001fc0:	b083      	sub	sp, #12
 8001fc2:	af00      	add	r7, sp, #0
 8001fc4:	6078      	str	r0, [r7, #4]
 8001fc6:	687b      	ldr	r3, [r7, #4]
 8001fc8:	2202      	movs	r2, #2
 8001fca:	f883 2039 	strb.w	r2, [r3, #57]	; 0x39
 8001fce:	687b      	ldr	r3, [r7, #4]
 8001fd0:	681b      	ldr	r3, [r3, #0]
 8001fd2:	681a      	ldr	r2, [r3, #0]
 8001fd4:	687b      	ldr	r3, [r7, #4]
 8001fd6:	681b      	ldr	r3, [r3, #0]
 8001fd8:	f042 0201 	orr.w	r2, r2, #1
 8001fdc:	601a      	str	r2, [r3, #0]
 8001fde:	687b      	ldr	r3, [r7, #4]
 8001fe0:	2201      	movs	r2, #1
 8001fe2:	f883 2039 	strb.w	r2, [r3, #57]	; 0x39
 8001fe6:	2300      	movs	r3, #0
 8001fe8:	4618      	mov	r0, r3
 8001fea:	370c      	adds	r7, #12
 8001fec:	46bd      	mov	sp, r7
 8001fee:	f85d 7b04 	ldr.w	r7, [sp], #4
 8001ff2:	4770      	bx	lr

08001ff4 <HAL_TIM_PWM_Init>:
 8001ff4:	b580      	push	{r7, lr}
 8001ff6:	b082      	sub	sp, #8
 8001ff8:	af00      	add	r7, sp, #0
 8001ffa:	6078      	str	r0, [r7, #4]
 8001ffc:	687b      	ldr	r3, [r7, #4]
 8001ffe:	2b00      	cmp	r3, #0
 8002000:	d101      	bne.n	8002006 <HAL_TIM_PWM_Init+0x12>
 8002002:	2301      	movs	r3, #1
 8002004:	e01d      	b.n	8002042 <HAL_TIM_PWM_Init+0x4e>
 8002006:	687b      	ldr	r3, [r7, #4]
 8002008:	f893 3039 	ldrb.w	r3, [r3, #57]	; 0x39
 800200c:	b2db      	uxtb	r3, r3
 800200e:	2b00      	cmp	r3, #0
 8002010:	d106      	bne.n	8002020 <HAL_TIM_PWM_Init+0x2c>
 8002012:	687b      	ldr	r3, [r7, #4]
 8002014:	2200      	movs	r2, #0
 8002016:	f883 2038 	strb.w	r2, [r3, #56]	; 0x38
 800201a:	6878      	ldr	r0, [r7, #4]
 800201c:	f000 f815 	bl	800204a <HAL_TIM_PWM_MspInit>
 8002020:	687b      	ldr	r3, [r7, #4]
 8002022:	2202      	movs	r2, #2
 8002024:	f883 2039 	strb.w	r2, [r3, #57]	; 0x39
 8002028:	687b      	ldr	r3, [r7, #4]
 800202a:	681a      	ldr	r2, [r3, #0]
 800202c:	687b      	ldr	r3, [r7, #4]
 800202e:	3304      	adds	r3, #4
 8002030:	4619      	mov	r1, r3
 8002032:	4610      	mov	r0, r2
 8002034:	f000 f9ea 	bl	800240c <TIM_Base_SetConfig>
 8002038:	687b      	ldr	r3, [r7, #4]
 800203a:	2201      	movs	r2, #1
 800203c:	f883 2039 	strb.w	r2, [r3, #57]	; 0x39
 8002040:	2300      	movs	r3, #0
 8002042:	4618      	mov	r0, r3
 8002044:	3708      	adds	r7, #8
 8002046:	46bd      	mov	sp, r7
 8002048:	bd80      	pop	{r7, pc}

0800204a <HAL_TIM_PWM_MspInit>:
 800204a:	b480      	push	{r7}
 800204c:	b083      	sub	sp, #12
 800204e:	af00      	add	r7, sp, #0
 8002050:	6078      	str	r0, [r7, #4]
 8002052:	bf00      	nop
 8002054:	370c      	adds	r7, #12
 8002056:	46bd      	mov	sp, r7
 8002058:	f85d 7b04 	ldr.w	r7, [sp], #4
 800205c:	4770      	bx	lr
	...

08002060 <HAL_TIM_PWM_Start>:
 8002060:	b580      	push	{r7, lr}
 8002062:	b082      	sub	sp, #8
 8002064:	af00      	add	r7, sp, #0
 8002066:	6078      	str	r0, [r7, #4]
 8002068:	6039      	str	r1, [r7, #0]
 800206a:	687b      	ldr	r3, [r7, #4]
 800206c:	681b      	ldr	r3, [r3, #0]
 800206e:	2201      	movs	r2, #1
 8002070:	6839      	ldr	r1, [r7, #0]
 8002072:	4618      	mov	r0, r3
 8002074:	f000 faec 	bl	8002650 <TIM_CCxChannelCmd>
 8002078:	687b      	ldr	r3, [r7, #4]
 800207a:	681b      	ldr	r3, [r3, #0]
 800207c:	4a10      	ldr	r2, [pc, #64]	; (80020c0 <HAL_TIM_PWM_Start+0x60>)
 800207e:	4293      	cmp	r3, r2
 8002080:	d004      	beq.n	800208c <HAL_TIM_PWM_Start+0x2c>
 8002082:	687b      	ldr	r3, [r7, #4]
 8002084:	681b      	ldr	r3, [r3, #0]
 8002086:	4a0f      	ldr	r2, [pc, #60]	; (80020c4 <HAL_TIM_PWM_Start+0x64>)
 8002088:	4293      	cmp	r3, r2
 800208a:	d101      	bne.n	8002090 <HAL_TIM_PWM_Start+0x30>
 800208c:	2301      	movs	r3, #1
 800208e:	e000      	b.n	8002092 <HAL_TIM_PWM_Start+0x32>
 8002090:	2300      	movs	r3, #0
 8002092:	2b00      	cmp	r3, #0
 8002094:	d007      	beq.n	80020a6 <HAL_TIM_PWM_Start+0x46>
 8002096:	687b      	ldr	r3, [r7, #4]
 8002098:	681b      	ldr	r3, [r3, #0]
 800209a:	6c5a      	ldr	r2, [r3, #68]	; 0x44
 800209c:	687b      	ldr	r3, [r7, #4]
 800209e:	681b      	ldr	r3, [r3, #0]
 80020a0:	f442 4200 	orr.w	r2, r2, #32768	; 0x8000
 80020a4:	645a      	str	r2, [r3, #68]	; 0x44
 80020a6:	687b      	ldr	r3, [r7, #4]
 80020a8:	681b      	ldr	r3, [r3, #0]
 80020aa:	681a      	ldr	r2, [r3, #0]
 80020ac:	687b      	ldr	r3, [r7, #4]
 80020ae:	681b      	ldr	r3, [r3, #0]
 80020b0:	f042 0201 	orr.w	r2, r2, #1
 80020b4:	601a      	str	r2, [r3, #0]
 80020b6:	2300      	movs	r3, #0
 80020b8:	4618      	mov	r0, r3
 80020ba:	3708      	adds	r7, #8
 80020bc:	46bd      	mov	sp, r7
 80020be:	bd80      	pop	{r7, pc}
 80020c0:	40010000 	.word	0x40010000
 80020c4:	40010400 	.word	0x40010400

080020c8 <HAL_TIM_PWM_ConfigChannel>:
 80020c8:	b580      	push	{r7, lr}
 80020ca:	b084      	sub	sp, #16
 80020cc:	af00      	add	r7, sp, #0
 80020ce:	60f8      	str	r0, [r7, #12]
 80020d0:	60b9      	str	r1, [r7, #8]
 80020d2:	607a      	str	r2, [r7, #4]
 80020d4:	68fb      	ldr	r3, [r7, #12]
 80020d6:	f893 3038 	ldrb.w	r3, [r3, #56]	; 0x38
 80020da:	2b01      	cmp	r3, #1
 80020dc:	d101      	bne.n	80020e2 <HAL_TIM_PWM_ConfigChannel+0x1a>
 80020de:	2302      	movs	r3, #2
 80020e0:	e0b4      	b.n	800224c <HAL_TIM_PWM_ConfigChannel+0x184>
 80020e2:	68fb      	ldr	r3, [r7, #12]
 80020e4:	2201      	movs	r2, #1
 80020e6:	f883 2038 	strb.w	r2, [r3, #56]	; 0x38
 80020ea:	68fb      	ldr	r3, [r7, #12]
 80020ec:	2202      	movs	r2, #2
 80020ee:	f883 2039 	strb.w	r2, [r3, #57]	; 0x39
 80020f2:	687b      	ldr	r3, [r7, #4]
 80020f4:	2b0c      	cmp	r3, #12
 80020f6:	f200 809f 	bhi.w	8002238 <HAL_TIM_PWM_ConfigChannel+0x170>
 80020fa:	a201      	add	r2, pc, #4	; (adr r2, 8002100 <HAL_TIM_PWM_ConfigChannel+0x38>)
 80020fc:	f852 f023 	ldr.w	pc, [r2, r3, lsl #2]
 8002100:	08002135 	.word	0x08002135
 8002104:	08002239 	.word	0x08002239
 8002108:	08002239 	.word	0x08002239
 800210c:	08002239 	.word	0x08002239
 8002110:	08002175 	.word	0x08002175
 8002114:	08002239 	.word	0x08002239
 8002118:	08002239 	.word	0x08002239
 800211c:	08002239 	.word	0x08002239
 8002120:	080021b7 	.word	0x080021b7
 8002124:	08002239 	.word	0x08002239
 8002128:	08002239 	.word	0x08002239
 800212c:	08002239 	.word	0x08002239
 8002130:	080021f7 	.word	0x080021f7
 8002134:	68fb      	ldr	r3, [r7, #12]
 8002136:	681b      	ldr	r3, [r3, #0]
 8002138:	68b9      	ldr	r1, [r7, #8]
 800213a:	4618      	mov	r0, r3
 800213c:	f000 faac 	bl	8002698 <TIM_OC1_SetConfig>
 8002140:	68fb      	ldr	r3, [r7, #12]
 8002142:	681b      	ldr	r3, [r3, #0]
 8002144:	699a      	ldr	r2, [r3, #24]
 8002146:	68fb      	ldr	r3, [r7, #12]
 8002148:	681b      	ldr	r3, [r3, #0]
 800214a:	f042 0208 	orr.w	r2, r2, #8
 800214e:	619a      	str	r2, [r3, #24]
 8002150:	68fb      	ldr	r3, [r7, #12]
 8002152:	681b      	ldr	r3, [r3, #0]
 8002154:	699a      	ldr	r2, [r3, #24]
 8002156:	68fb      	ldr	r3, [r7, #12]
 8002158:	681b      	ldr	r3, [r3, #0]
 800215a:	f022 0204 	bic.w	r2, r2, #4
 800215e:	619a      	str	r2, [r3, #24]
 8002160:	68fb      	ldr	r3, [r7, #12]
 8002162:	681b      	ldr	r3, [r3, #0]
 8002164:	6999      	ldr	r1, [r3, #24]
 8002166:	68bb      	ldr	r3, [r7, #8]
 8002168:	691a      	ldr	r2, [r3, #16]
 800216a:	68fb      	ldr	r3, [r7, #12]
 800216c:	681b      	ldr	r3, [r3, #0]
 800216e:	430a      	orrs	r2, r1
 8002170:	619a      	str	r2, [r3, #24]
 8002172:	e062      	b.n	800223a <HAL_TIM_PWM_ConfigChannel+0x172>
 8002174:	68fb      	ldr	r3, [r7, #12]
 8002176:	681b      	ldr	r3, [r3, #0]
 8002178:	68b9      	ldr	r1, [r7, #8]
 800217a:	4618      	mov	r0, r3
 800217c:	f000 f9f0 	bl	8002560 <TIM_OC2_SetConfig>
 8002180:	68fb      	ldr	r3, [r7, #12]
 8002182:	681b      	ldr	r3, [r3, #0]
 8002184:	699a      	ldr	r2, [r3, #24]
 8002186:	68fb      	ldr	r3, [r7, #12]
 8002188:	681b      	ldr	r3, [r3, #0]
 800218a:	f442 6200 	orr.w	r2, r2, #2048	; 0x800
 800218e:	619a      	str	r2, [r3, #24]
 8002190:	68fb      	ldr	r3, [r7, #12]
 8002192:	681b      	ldr	r3, [r3, #0]
 8002194:	699a      	ldr	r2, [r3, #24]
 8002196:	68fb      	ldr	r3, [r7, #12]
 8002198:	681b      	ldr	r3, [r3, #0]
 800219a:	f422 6280 	bic.w	r2, r2, #1024	; 0x400
 800219e:	619a      	str	r2, [r3, #24]
 80021a0:	68fb      	ldr	r3, [r7, #12]
 80021a2:	681b      	ldr	r3, [r3, #0]
 80021a4:	6999      	ldr	r1, [r3, #24]
 80021a6:	68bb      	ldr	r3, [r7, #8]
 80021a8:	691b      	ldr	r3, [r3, #16]
 80021aa:	021a      	lsls	r2, r3, #8
 80021ac:	68fb      	ldr	r3, [r7, #12]
 80021ae:	681b      	ldr	r3, [r3, #0]
 80021b0:	430a      	orrs	r2, r1
 80021b2:	619a      	str	r2, [r3, #24]
 80021b4:	e041      	b.n	800223a <HAL_TIM_PWM_ConfigChannel+0x172>
 80021b6:	68fb      	ldr	r3, [r7, #12]
 80021b8:	681b      	ldr	r3, [r3, #0]
 80021ba:	68b9      	ldr	r1, [r7, #8]
 80021bc:	4618      	mov	r0, r3
 80021be:	f000 fadf 	bl	8002780 <TIM_OC3_SetConfig>
 80021c2:	68fb      	ldr	r3, [r7, #12]
 80021c4:	681b      	ldr	r3, [r3, #0]
 80021c6:	69da      	ldr	r2, [r3, #28]
 80021c8:	68fb      	ldr	r3, [r7, #12]
 80021ca:	681b      	ldr	r3, [r3, #0]
 80021cc:	f042 0208 	orr.w	r2, r2, #8
 80021d0:	61da      	str	r2, [r3, #28]
 80021d2:	68fb      	ldr	r3, [r7, #12]
 80021d4:	681b      	ldr	r3, [r3, #0]
 80021d6:	69da      	ldr	r2, [r3, #28]
 80021d8:	68fb      	ldr	r3, [r7, #12]
 80021da:	681b      	ldr	r3, [r3, #0]
 80021dc:	f022 0204 	bic.w	r2, r2, #4
 80021e0:	61da      	str	r2, [r3, #28]
 80021e2:	68fb      	ldr	r3, [r7, #12]
 80021e4:	681b      	ldr	r3, [r3, #0]
 80021e6:	69d9      	ldr	r1, [r3, #28]
 80021e8:	68bb      	ldr	r3, [r7, #8]
 80021ea:	691a      	ldr	r2, [r3, #16]
 80021ec:	68fb      	ldr	r3, [r7, #12]
 80021ee:	681b      	ldr	r3, [r3, #0]
 80021f0:	430a      	orrs	r2, r1
 80021f2:	61da      	str	r2, [r3, #28]
 80021f4:	e021      	b.n	800223a <HAL_TIM_PWM_ConfigChannel+0x172>
 80021f6:	68fb      	ldr	r3, [r7, #12]
 80021f8:	681b      	ldr	r3, [r3, #0]
 80021fa:	68b9      	ldr	r1, [r7, #8]
 80021fc:	4618      	mov	r0, r3
 80021fe:	f000 fb37 	bl	8002870 <TIM_OC4_SetConfig>
 8002202:	68fb      	ldr	r3, [r7, #12]
 8002204:	681b      	ldr	r3, [r3, #0]
 8002206:	69da      	ldr	r2, [r3, #28]
 8002208:	68fb      	ldr	r3, [r7, #12]
 800220a:	681b      	ldr	r3, [r3, #0]
 800220c:	f442 6200 	orr.w	r2, r2, #2048	; 0x800
 8002210:	61da      	str	r2, [r3, #28]
 8002212:	68fb      	ldr	r3, [r7, #12]
 8002214:	681b      	ldr	r3, [r3, #0]
 8002216:	69da      	ldr	r2, [r3, #28]
 8002218:	68fb      	ldr	r3, [r7, #12]
 800221a:	681b      	ldr	r3, [r3, #0]
 800221c:	f422 6280 	bic.w	r2, r2, #1024	; 0x400
 8002220:	61da      	str	r2, [r3, #28]
 8002222:	68fb      	ldr	r3, [r7, #12]
 8002224:	681b      	ldr	r3, [r3, #0]
 8002226:	69d9      	ldr	r1, [r3, #28]
 8002228:	68bb      	ldr	r3, [r7, #8]
 800222a:	691b      	ldr	r3, [r3, #16]
 800222c:	021a      	lsls	r2, r3, #8
 800222e:	68fb      	ldr	r3, [r7, #12]
 8002230:	681b      	ldr	r3, [r3, #0]
 8002232:	430a      	orrs	r2, r1
 8002234:	61da      	str	r2, [r3, #28]
 8002236:	e000      	b.n	800223a <HAL_TIM_PWM_ConfigChannel+0x172>
 8002238:	bf00      	nop
 800223a:	68fb      	ldr	r3, [r7, #12]
 800223c:	2201      	movs	r2, #1
 800223e:	f883 2039 	strb.w	r2, [r3, #57]	; 0x39
 8002242:	68fb      	ldr	r3, [r7, #12]
 8002244:	2200      	movs	r2, #0
 8002246:	f883 2038 	strb.w	r2, [r3, #56]	; 0x38
 800224a:	2300      	movs	r3, #0
 800224c:	4618      	mov	r0, r3
 800224e:	3710      	adds	r7, #16
 8002250:	46bd      	mov	sp, r7
 8002252:	bd80      	pop	{r7, pc}

08002254 <HAL_TIM_ConfigClockSource>:
 8002254:	b580      	push	{r7, lr}
 8002256:	b084      	sub	sp, #16
 8002258:	af00      	add	r7, sp, #0
 800225a:	6078      	str	r0, [r7, #4]
 800225c:	6039      	str	r1, [r7, #0]
 800225e:	2300      	movs	r3, #0
 8002260:	60fb      	str	r3, [r7, #12]
 8002262:	687b      	ldr	r3, [r7, #4]
 8002264:	f893 3038 	ldrb.w	r3, [r3, #56]	; 0x38
 8002268:	2b01      	cmp	r3, #1
 800226a:	d101      	bne.n	8002270 <HAL_TIM_ConfigClockSource+0x1c>
 800226c:	2302      	movs	r3, #2
 800226e:	e0c8      	b.n	8002402 <HAL_TIM_ConfigClockSource+0x1ae>
 8002270:	687b      	ldr	r3, [r7, #4]
 8002272:	2201      	movs	r2, #1
 8002274:	f883 2038 	strb.w	r2, [r3, #56]	; 0x38
 8002278:	687b      	ldr	r3, [r7, #4]
 800227a:	2202      	movs	r2, #2
 800227c:	f883 2039 	strb.w	r2, [r3, #57]	; 0x39
 8002280:	687b      	ldr	r3, [r7, #4]
 8002282:	681b      	ldr	r3, [r3, #0]
 8002284:	689b      	ldr	r3, [r3, #8]
 8002286:	60fb      	str	r3, [r7, #12]
 8002288:	68fb      	ldr	r3, [r7, #12]
 800228a:	f023 0377 	bic.w	r3, r3, #119	; 0x77
 800228e:	60fb      	str	r3, [r7, #12]
 8002290:	68fb      	ldr	r3, [r7, #12]
 8002292:	f423 437f 	bic.w	r3, r3, #65280	; 0xff00
 8002296:	60fb      	str	r3, [r7, #12]
 8002298:	687b      	ldr	r3, [r7, #4]
 800229a:	681b      	ldr	r3, [r3, #0]
 800229c:	68fa      	ldr	r2, [r7, #12]
 800229e:	609a      	str	r2, [r3, #8]
 80022a0:	683b      	ldr	r3, [r7, #0]
 80022a2:	681b      	ldr	r3, [r3, #0]
 80022a4:	2b40      	cmp	r3, #64	; 0x40
 80022a6:	d077      	beq.n	8002398 <HAL_TIM_ConfigClockSource+0x144>
 80022a8:	2b40      	cmp	r3, #64	; 0x40
 80022aa:	d80e      	bhi.n	80022ca <HAL_TIM_ConfigClockSource+0x76>
 80022ac:	2b10      	cmp	r3, #16
 80022ae:	f000 808a 	beq.w	80023c6 <HAL_TIM_ConfigClockSource+0x172>
 80022b2:	2b10      	cmp	r3, #16
 80022b4:	d802      	bhi.n	80022bc <HAL_TIM_ConfigClockSource+0x68>
 80022b6:	2b00      	cmp	r3, #0
 80022b8:	d07e      	beq.n	80023b8 <HAL_TIM_ConfigClockSource+0x164>
 80022ba:	e099      	b.n	80023f0 <HAL_TIM_ConfigClockSource+0x19c>
 80022bc:	2b20      	cmp	r3, #32
 80022be:	f000 8089 	beq.w	80023d4 <HAL_TIM_ConfigClockSource+0x180>
 80022c2:	2b30      	cmp	r3, #48	; 0x30
 80022c4:	f000 808d 	beq.w	80023e2 <HAL_TIM_ConfigClockSource+0x18e>
 80022c8:	e092      	b.n	80023f0 <HAL_TIM_ConfigClockSource+0x19c>
 80022ca:	2b70      	cmp	r3, #112	; 0x70
 80022cc:	d016      	beq.n	80022fc <HAL_TIM_ConfigClockSource+0xa8>
 80022ce:	2b70      	cmp	r3, #112	; 0x70
 80022d0:	d804      	bhi.n	80022dc <HAL_TIM_ConfigClockSource+0x88>
 80022d2:	2b50      	cmp	r3, #80	; 0x50
 80022d4:	d040      	beq.n	8002358 <HAL_TIM_ConfigClockSource+0x104>
 80022d6:	2b60      	cmp	r3, #96	; 0x60
 80022d8:	d04e      	beq.n	8002378 <HAL_TIM_ConfigClockSource+0x124>
 80022da:	e089      	b.n	80023f0 <HAL_TIM_ConfigClockSource+0x19c>
 80022dc:	f5b3 5f80 	cmp.w	r3, #4096	; 0x1000
 80022e0:	d003      	beq.n	80022ea <HAL_TIM_ConfigClockSource+0x96>
 80022e2:	f5b3 5f00 	cmp.w	r3, #8192	; 0x2000
 80022e6:	d024      	beq.n	8002332 <HAL_TIM_ConfigClockSource+0xde>
 80022e8:	e082      	b.n	80023f0 <HAL_TIM_ConfigClockSource+0x19c>
 80022ea:	687b      	ldr	r3, [r7, #4]
 80022ec:	681b      	ldr	r3, [r3, #0]
 80022ee:	689a      	ldr	r2, [r3, #8]
 80022f0:	687b      	ldr	r3, [r7, #4]
 80022f2:	681b      	ldr	r3, [r3, #0]
 80022f4:	f022 0207 	bic.w	r2, r2, #7
 80022f8:	609a      	str	r2, [r3, #8]
 80022fa:	e079      	b.n	80023f0 <HAL_TIM_ConfigClockSource+0x19c>
 80022fc:	687b      	ldr	r3, [r7, #4]
 80022fe:	6818      	ldr	r0, [r3, #0]
 8002300:	683b      	ldr	r3, [r7, #0]
 8002302:	6899      	ldr	r1, [r3, #8]
 8002304:	683b      	ldr	r3, [r7, #0]
 8002306:	685a      	ldr	r2, [r3, #4]
 8002308:	683b      	ldr	r3, [r7, #0]
 800230a:	68db      	ldr	r3, [r3, #12]
 800230c:	f000 fb97 	bl	8002a3e <TIM_ETR_SetConfig>
 8002310:	687b      	ldr	r3, [r7, #4]
 8002312:	681b      	ldr	r3, [r3, #0]
 8002314:	689b      	ldr	r3, [r3, #8]
 8002316:	60fb      	str	r3, [r7, #12]
 8002318:	68fb      	ldr	r3, [r7, #12]
 800231a:	f023 0377 	bic.w	r3, r3, #119	; 0x77
 800231e:	60fb      	str	r3, [r7, #12]
 8002320:	68fb      	ldr	r3, [r7, #12]
 8002322:	f043 0377 	orr.w	r3, r3, #119	; 0x77
 8002326:	60fb      	str	r3, [r7, #12]
 8002328:	687b      	ldr	r3, [r7, #4]
 800232a:	681b      	ldr	r3, [r3, #0]
 800232c:	68fa      	ldr	r2, [r7, #12]
 800232e:	609a      	str	r2, [r3, #8]
 8002330:	e05e      	b.n	80023f0 <HAL_TIM_ConfigClockSource+0x19c>
 8002332:	687b      	ldr	r3, [r7, #4]
 8002334:	6818      	ldr	r0, [r3, #0]
 8002336:	683b      	ldr	r3, [r7, #0]
 8002338:	6899      	ldr	r1, [r3, #8]
 800233a:	683b      	ldr	r3, [r7, #0]
 800233c:	685a      	ldr	r2, [r3, #4]
 800233e:	683b      	ldr	r3, [r7, #0]
 8002340:	68db      	ldr	r3, [r3, #12]
 8002342:	f000 fb7c 	bl	8002a3e <TIM_ETR_SetConfig>
 8002346:	687b      	ldr	r3, [r7, #4]
 8002348:	681b      	ldr	r3, [r3, #0]
 800234a:	689a      	ldr	r2, [r3, #8]
 800234c:	687b      	ldr	r3, [r7, #4]
 800234e:	681b      	ldr	r3, [r3, #0]
 8002350:	f442 4280 	orr.w	r2, r2, #16384	; 0x4000
 8002354:	609a      	str	r2, [r3, #8]
 8002356:	e04b      	b.n	80023f0 <HAL_TIM_ConfigClockSource+0x19c>
 8002358:	687b      	ldr	r3, [r7, #4]
 800235a:	6818      	ldr	r0, [r3, #0]
 800235c:	683b      	ldr	r3, [r7, #0]
 800235e:	6859      	ldr	r1, [r3, #4]
 8002360:	683b      	ldr	r3, [r7, #0]
 8002362:	68db      	ldr	r3, [r3, #12]
 8002364:	461a      	mov	r2, r3
 8002366:	f000 fae3 	bl	8002930 <TIM_TI1_ConfigInputStage>
 800236a:	687b      	ldr	r3, [r7, #4]
 800236c:	681b      	ldr	r3, [r3, #0]
 800236e:	2150      	movs	r1, #80	; 0x50
 8002370:	4618      	mov	r0, r3
 8002372:	f000 fb44 	bl	80029fe <TIM_ITRx_SetConfig>
 8002376:	e03b      	b.n	80023f0 <HAL_TIM_ConfigClockSource+0x19c>
 8002378:	687b      	ldr	r3, [r7, #4]
 800237a:	6818      	ldr	r0, [r3, #0]
 800237c:	683b      	ldr	r3, [r7, #0]
 800237e:	6859      	ldr	r1, [r3, #4]
 8002380:	683b      	ldr	r3, [r7, #0]
 8002382:	68db      	ldr	r3, [r3, #12]
 8002384:	461a      	mov	r2, r3
 8002386:	f000 fb06 	bl	8002996 <TIM_TI2_ConfigInputStage>
 800238a:	687b      	ldr	r3, [r7, #4]
 800238c:	681b      	ldr	r3, [r3, #0]
 800238e:	2160      	movs	r1, #96	; 0x60
 8002390:	4618      	mov	r0, r3
 8002392:	f000 fb34 	bl	80029fe <TIM_ITRx_SetConfig>
 8002396:	e02b      	b.n	80023f0 <HAL_TIM_ConfigClockSource+0x19c>
 8002398:	687b      	ldr	r3, [r7, #4]
 800239a:	6818      	ldr	r0, [r3, #0]
 800239c:	683b      	ldr	r3, [r7, #0]
 800239e:	6859      	ldr	r1, [r3, #4]
 80023a0:	683b      	ldr	r3, [r7, #0]
 80023a2:	68db      	ldr	r3, [r3, #12]
 80023a4:	461a      	mov	r2, r3
 80023a6:	f000 fac3 	bl	8002930 <TIM_TI1_ConfigInputStage>
 80023aa:	687b      	ldr	r3, [r7, #4]
 80023ac:	681b      	ldr	r3, [r3, #0]
 80023ae:	2140      	movs	r1, #64	; 0x40
 80023b0:	4618      	mov	r0, r3
 80023b2:	f000 fb24 	bl	80029fe <TIM_ITRx_SetConfig>
 80023b6:	e01b      	b.n	80023f0 <HAL_TIM_ConfigClockSource+0x19c>
 80023b8:	687b      	ldr	r3, [r7, #4]
 80023ba:	681b      	ldr	r3, [r3, #0]
 80023bc:	2100      	movs	r1, #0
 80023be:	4618      	mov	r0, r3
 80023c0:	f000 fb1d 	bl	80029fe <TIM_ITRx_SetConfig>
 80023c4:	e014      	b.n	80023f0 <HAL_TIM_ConfigClockSource+0x19c>
 80023c6:	687b      	ldr	r3, [r7, #4]
 80023c8:	681b      	ldr	r3, [r3, #0]
 80023ca:	2110      	movs	r1, #16
 80023cc:	4618      	mov	r0, r3
 80023ce:	f000 fb16 	bl	80029fe <TIM_ITRx_SetConfig>
 80023d2:	e00d      	b.n	80023f0 <HAL_TIM_ConfigClockSource+0x19c>
 80023d4:	687b      	ldr	r3, [r7, #4]
 80023d6:	681b      	ldr	r3, [r3, #0]
 80023d8:	2120      	movs	r1, #32
 80023da:	4618      	mov	r0, r3
 80023dc:	f000 fb0f 	bl	80029fe <TIM_ITRx_SetConfig>
 80023e0:	e006      	b.n	80023f0 <HAL_TIM_ConfigClockSource+0x19c>
 80023e2:	687b      	ldr	r3, [r7, #4]
 80023e4:	681b      	ldr	r3, [r3, #0]
 80023e6:	2130      	movs	r1, #48	; 0x30
 80023e8:	4618      	mov	r0, r3
 80023ea:	f000 fb08 	bl	80029fe <TIM_ITRx_SetConfig>
 80023ee:	bf00      	nop
 80023f0:	687b      	ldr	r3, [r7, #4]
 80023f2:	2201      	movs	r2, #1
 80023f4:	f883 2039 	strb.w	r2, [r3, #57]	; 0x39
 80023f8:	687b      	ldr	r3, [r7, #4]
 80023fa:	2200      	movs	r2, #0
 80023fc:	f883 2038 	strb.w	r2, [r3, #56]	; 0x38
 8002400:	2300      	movs	r3, #0
 8002402:	4618      	mov	r0, r3
 8002404:	3710      	adds	r7, #16
 8002406:	46bd      	mov	sp, r7
 8002408:	bd80      	pop	{r7, pc}
	...

0800240c <TIM_Base_SetConfig>:
 800240c:	b480      	push	{r7}
 800240e:	b085      	sub	sp, #20
 8002410:	af00      	add	r7, sp, #0
 8002412:	6078      	str	r0, [r7, #4]
 8002414:	6039      	str	r1, [r7, #0]
 8002416:	2300      	movs	r3, #0
 8002418:	60fb      	str	r3, [r7, #12]
 800241a:	687b      	ldr	r3, [r7, #4]
 800241c:	681b      	ldr	r3, [r3, #0]
 800241e:	60fb      	str	r3, [r7, #12]
 8002420:	687b      	ldr	r3, [r7, #4]
 8002422:	4a44      	ldr	r2, [pc, #272]	; (8002534 <TIM_Base_SetConfig+0x128>)
 8002424:	4293      	cmp	r3, r2
 8002426:	d013      	beq.n	8002450 <TIM_Base_SetConfig+0x44>
 8002428:	687b      	ldr	r3, [r7, #4]
 800242a:	f1b3 4f80 	cmp.w	r3, #1073741824	; 0x40000000
 800242e:	d00f      	beq.n	8002450 <TIM_Base_SetConfig+0x44>
 8002430:	687b      	ldr	r3, [r7, #4]
 8002432:	4a41      	ldr	r2, [pc, #260]	; (8002538 <TIM_Base_SetConfig+0x12c>)
 8002434:	4293      	cmp	r3, r2
 8002436:	d00b      	beq.n	8002450 <TIM_Base_SetConfig+0x44>
 8002438:	687b      	ldr	r3, [r7, #4]
 800243a:	4a40      	ldr	r2, [pc, #256]	; (800253c <TIM_Base_SetConfig+0x130>)
 800243c:	4293      	cmp	r3, r2
 800243e:	d007      	beq.n	8002450 <TIM_Base_SetConfig+0x44>
 8002440:	687b      	ldr	r3, [r7, #4]
 8002442:	4a3f      	ldr	r2, [pc, #252]	; (8002540 <TIM_Base_SetConfig+0x134>)
 8002444:	4293      	cmp	r3, r2
 8002446:	d003      	beq.n	8002450 <TIM_Base_SetConfig+0x44>
 8002448:	687b      	ldr	r3, [r7, #4]
 800244a:	4a3e      	ldr	r2, [pc, #248]	; (8002544 <TIM_Base_SetConfig+0x138>)
 800244c:	4293      	cmp	r3, r2
 800244e:	d101      	bne.n	8002454 <TIM_Base_SetConfig+0x48>
 8002450:	2301      	movs	r3, #1
 8002452:	e000      	b.n	8002456 <TIM_Base_SetConfig+0x4a>
 8002454:	2300      	movs	r3, #0
 8002456:	2b00      	cmp	r3, #0
 8002458:	d008      	beq.n	800246c <TIM_Base_SetConfig+0x60>
 800245a:	68fb      	ldr	r3, [r7, #12]
 800245c:	f023 0370 	bic.w	r3, r3, #112	; 0x70
 8002460:	60fb      	str	r3, [r7, #12]
 8002462:	683b      	ldr	r3, [r7, #0]
 8002464:	685b      	ldr	r3, [r3, #4]
 8002466:	68fa      	ldr	r2, [r7, #12]
 8002468:	4313      	orrs	r3, r2
 800246a:	60fb      	str	r3, [r7, #12]
 800246c:	687b      	ldr	r3, [r7, #4]
 800246e:	4a31      	ldr	r2, [pc, #196]	; (8002534 <TIM_Base_SetConfig+0x128>)
 8002470:	4293      	cmp	r3, r2
 8002472:	d02b      	beq.n	80024cc <TIM_Base_SetConfig+0xc0>
 8002474:	687b      	ldr	r3, [r7, #4]
 8002476:	f1b3 4f80 	cmp.w	r3, #1073741824	; 0x40000000
 800247a:	d027      	beq.n	80024cc <TIM_Base_SetConfig+0xc0>
 800247c:	687b      	ldr	r3, [r7, #4]
 800247e:	4a2e      	ldr	r2, [pc, #184]	; (8002538 <TIM_Base_SetConfig+0x12c>)
 8002480:	4293      	cmp	r3, r2
 8002482:	d023      	beq.n	80024cc <TIM_Base_SetConfig+0xc0>
 8002484:	687b      	ldr	r3, [r7, #4]
 8002486:	4a2d      	ldr	r2, [pc, #180]	; (800253c <TIM_Base_SetConfig+0x130>)
 8002488:	4293      	cmp	r3, r2
 800248a:	d01f      	beq.n	80024cc <TIM_Base_SetConfig+0xc0>
 800248c:	687b      	ldr	r3, [r7, #4]
 800248e:	4a2c      	ldr	r2, [pc, #176]	; (8002540 <TIM_Base_SetConfig+0x134>)
 8002490:	4293      	cmp	r3, r2
 8002492:	d01b      	beq.n	80024cc <TIM_Base_SetConfig+0xc0>
 8002494:	687b      	ldr	r3, [r7, #4]
 8002496:	4a2b      	ldr	r2, [pc, #172]	; (8002544 <TIM_Base_SetConfig+0x138>)
 8002498:	4293      	cmp	r3, r2
 800249a:	d017      	beq.n	80024cc <TIM_Base_SetConfig+0xc0>
 800249c:	687b      	ldr	r3, [r7, #4]
 800249e:	4a2a      	ldr	r2, [pc, #168]	; (8002548 <TIM_Base_SetConfig+0x13c>)
 80024a0:	4293      	cmp	r3, r2
 80024a2:	d013      	beq.n	80024cc <TIM_Base_SetConfig+0xc0>
 80024a4:	687b      	ldr	r3, [r7, #4]
 80024a6:	4a29      	ldr	r2, [pc, #164]	; (800254c <TIM_Base_SetConfig+0x140>)
 80024a8:	4293      	cmp	r3, r2
 80024aa:	d00f      	beq.n	80024cc <TIM_Base_SetConfig+0xc0>
 80024ac:	687b      	ldr	r3, [r7, #4]
 80024ae:	4a28      	ldr	r2, [pc, #160]	; (8002550 <TIM_Base_SetConfig+0x144>)
 80024b0:	4293      	cmp	r3, r2
 80024b2:	d00b      	beq.n	80024cc <TIM_Base_SetConfig+0xc0>
 80024b4:	687b      	ldr	r3, [r7, #4]
 80024b6:	4a27      	ldr	r2, [pc, #156]	; (8002554 <TIM_Base_SetConfig+0x148>)
 80024b8:	4293      	cmp	r3, r2
 80024ba:	d007      	beq.n	80024cc <TIM_Base_SetConfig+0xc0>
 80024bc:	687b      	ldr	r3, [r7, #4]
 80024be:	4a26      	ldr	r2, [pc, #152]	; (8002558 <TIM_Base_SetConfig+0x14c>)
 80024c0:	4293      	cmp	r3, r2
 80024c2:	d003      	beq.n	80024cc <TIM_Base_SetConfig+0xc0>
 80024c4:	687b      	ldr	r3, [r7, #4]
 80024c6:	4a25      	ldr	r2, [pc, #148]	; (800255c <TIM_Base_SetConfig+0x150>)
 80024c8:	4293      	cmp	r3, r2
 80024ca:	d101      	bne.n	80024d0 <TIM_Base_SetConfig+0xc4>
 80024cc:	2301      	movs	r3, #1
 80024ce:	e000      	b.n	80024d2 <TIM_Base_SetConfig+0xc6>
 80024d0:	2300      	movs	r3, #0
 80024d2:	2b00      	cmp	r3, #0
 80024d4:	d008      	beq.n	80024e8 <TIM_Base_SetConfig+0xdc>
 80024d6:	68fb      	ldr	r3, [r7, #12]
 80024d8:	f423 7340 	bic.w	r3, r3, #768	; 0x300
 80024dc:	60fb      	str	r3, [r7, #12]
 80024de:	683b      	ldr	r3, [r7, #0]
 80024e0:	68db      	ldr	r3, [r3, #12]
 80024e2:	68fa      	ldr	r2, [r7, #12]
 80024e4:	4313      	orrs	r3, r2
 80024e6:	60fb      	str	r3, [r7, #12]
 80024e8:	687b      	ldr	r3, [r7, #4]
 80024ea:	68fa      	ldr	r2, [r7, #12]
 80024ec:	601a      	str	r2, [r3, #0]
 80024ee:	683b      	ldr	r3, [r7, #0]
 80024f0:	689a      	ldr	r2, [r3, #8]
 80024f2:	687b      	ldr	r3, [r7, #4]
 80024f4:	62da      	str	r2, [r3, #44]	; 0x2c
 80024f6:	683b      	ldr	r3, [r7, #0]
 80024f8:	681a      	ldr	r2, [r3, #0]
 80024fa:	687b      	ldr	r3, [r7, #4]
 80024fc:	629a      	str	r2, [r3, #40]	; 0x28
 80024fe:	687b      	ldr	r3, [r7, #4]
 8002500:	4a0c      	ldr	r2, [pc, #48]	; (8002534 <TIM_Base_SetConfig+0x128>)
 8002502:	4293      	cmp	r3, r2
 8002504:	d003      	beq.n	800250e <TIM_Base_SetConfig+0x102>
 8002506:	687b      	ldr	r3, [r7, #4]
 8002508:	4a0e      	ldr	r2, [pc, #56]	; (8002544 <TIM_Base_SetConfig+0x138>)
 800250a:	4293      	cmp	r3, r2
 800250c:	d101      	bne.n	8002512 <TIM_Base_SetConfig+0x106>
 800250e:	2301      	movs	r3, #1
 8002510:	e000      	b.n	8002514 <TIM_Base_SetConfig+0x108>
 8002512:	2300      	movs	r3, #0
 8002514:	2b00      	cmp	r3, #0
 8002516:	d003      	beq.n	8002520 <TIM_Base_SetConfig+0x114>
 8002518:	683b      	ldr	r3, [r7, #0]
 800251a:	691a      	ldr	r2, [r3, #16]
 800251c:	687b      	ldr	r3, [r7, #4]
 800251e:	631a      	str	r2, [r3, #48]	; 0x30
 8002520:	687b      	ldr	r3, [r7, #4]
 8002522:	2201      	movs	r2, #1
 8002524:	615a      	str	r2, [r3, #20]
 8002526:	bf00      	nop
 8002528:	3714      	adds	r7, #20
 800252a:	46bd      	mov	sp, r7
 800252c:	f85d 7b04 	ldr.w	r7, [sp], #4
 8002530:	4770      	bx	lr
 8002532:	bf00      	nop
 8002534:	40010000 	.word	0x40010000
 8002538:	40000400 	.word	0x40000400
 800253c:	40000800 	.word	0x40000800
 8002540:	40000c00 	.word	0x40000c00
 8002544:	40010400 	.word	0x40010400
 8002548:	40014000 	.word	0x40014000
 800254c:	40014400 	.word	0x40014400
 8002550:	40014800 	.word	0x40014800
 8002554:	40001800 	.word	0x40001800
 8002558:	40001c00 	.word	0x40001c00
 800255c:	40002000 	.word	0x40002000

08002560 <TIM_OC2_SetConfig>:
 8002560:	b480      	push	{r7}
 8002562:	b087      	sub	sp, #28
 8002564:	af00      	add	r7, sp, #0
 8002566:	6078      	str	r0, [r7, #4]
 8002568:	6039      	str	r1, [r7, #0]
 800256a:	2300      	movs	r3, #0
 800256c:	60fb      	str	r3, [r7, #12]
 800256e:	2300      	movs	r3, #0
 8002570:	617b      	str	r3, [r7, #20]
 8002572:	2300      	movs	r3, #0
 8002574:	613b      	str	r3, [r7, #16]
 8002576:	687b      	ldr	r3, [r7, #4]
 8002578:	6a1b      	ldr	r3, [r3, #32]
 800257a:	f023 0210 	bic.w	r2, r3, #16
 800257e:	687b      	ldr	r3, [r7, #4]
 8002580:	621a      	str	r2, [r3, #32]
 8002582:	687b      	ldr	r3, [r7, #4]
 8002584:	6a1b      	ldr	r3, [r3, #32]
 8002586:	617b      	str	r3, [r7, #20]
 8002588:	687b      	ldr	r3, [r7, #4]
 800258a:	685b      	ldr	r3, [r3, #4]
 800258c:	613b      	str	r3, [r7, #16]
 800258e:	687b      	ldr	r3, [r7, #4]
 8002590:	699b      	ldr	r3, [r3, #24]
 8002592:	60fb      	str	r3, [r7, #12]
 8002594:	68fb      	ldr	r3, [r7, #12]
 8002596:	f423 43e0 	bic.w	r3, r3, #28672	; 0x7000
 800259a:	60fb      	str	r3, [r7, #12]
 800259c:	68fb      	ldr	r3, [r7, #12]
 800259e:	f423 7340 	bic.w	r3, r3, #768	; 0x300
 80025a2:	60fb      	str	r3, [r7, #12]
 80025a4:	683b      	ldr	r3, [r7, #0]
 80025a6:	681b      	ldr	r3, [r3, #0]
 80025a8:	021b      	lsls	r3, r3, #8
 80025aa:	68fa      	ldr	r2, [r7, #12]
 80025ac:	4313      	orrs	r3, r2
 80025ae:	60fb      	str	r3, [r7, #12]
 80025b0:	697b      	ldr	r3, [r7, #20]
 80025b2:	f023 0320 	bic.w	r3, r3, #32
 80025b6:	617b      	str	r3, [r7, #20]
 80025b8:	683b      	ldr	r3, [r7, #0]
 80025ba:	689b      	ldr	r3, [r3, #8]
 80025bc:	011b      	lsls	r3, r3, #4
 80025be:	697a      	ldr	r2, [r7, #20]
 80025c0:	4313      	orrs	r3, r2
 80025c2:	617b      	str	r3, [r7, #20]
 80025c4:	687b      	ldr	r3, [r7, #4]
 80025c6:	4a20      	ldr	r2, [pc, #128]	; (8002648 <TIM_OC2_SetConfig+0xe8>)
 80025c8:	4293      	cmp	r3, r2
 80025ca:	d003      	beq.n	80025d4 <TIM_OC2_SetConfig+0x74>
 80025cc:	687b      	ldr	r3, [r7, #4]
 80025ce:	4a1f      	ldr	r2, [pc, #124]	; (800264c <TIM_OC2_SetConfig+0xec>)
 80025d0:	4293      	cmp	r3, r2
 80025d2:	d101      	bne.n	80025d8 <TIM_OC2_SetConfig+0x78>
 80025d4:	2301      	movs	r3, #1
 80025d6:	e000      	b.n	80025da <TIM_OC2_SetConfig+0x7a>
 80025d8:	2300      	movs	r3, #0
 80025da:	2b00      	cmp	r3, #0
 80025dc:	d021      	beq.n	8002622 <TIM_OC2_SetConfig+0xc2>
 80025de:	697b      	ldr	r3, [r7, #20]
 80025e0:	f023 0380 	bic.w	r3, r3, #128	; 0x80
 80025e4:	617b      	str	r3, [r7, #20]
 80025e6:	683b      	ldr	r3, [r7, #0]
 80025e8:	68db      	ldr	r3, [r3, #12]
 80025ea:	011b      	lsls	r3, r3, #4
 80025ec:	697a      	ldr	r2, [r7, #20]
 80025ee:	4313      	orrs	r3, r2
 80025f0:	617b      	str	r3, [r7, #20]
 80025f2:	697b      	ldr	r3, [r7, #20]
 80025f4:	f023 0340 	bic.w	r3, r3, #64	; 0x40
 80025f8:	617b      	str	r3, [r7, #20]
 80025fa:	693b      	ldr	r3, [r7, #16]
 80025fc:	f423 6380 	bic.w	r3, r3, #1024	; 0x400
 8002600:	613b      	str	r3, [r7, #16]
 8002602:	693b      	ldr	r3, [r7, #16]
 8002604:	f423 6300 	bic.w	r3, r3, #2048	; 0x800
 8002608:	613b      	str	r3, [r7, #16]
 800260a:	683b      	ldr	r3, [r7, #0]
 800260c:	695b      	ldr	r3, [r3, #20]
 800260e:	009b      	lsls	r3, r3, #2
 8002610:	693a      	ldr	r2, [r7, #16]
 8002612:	4313      	orrs	r3, r2
 8002614:	613b      	str	r3, [r7, #16]
 8002616:	683b      	ldr	r3, [r7, #0]
 8002618:	699b      	ldr	r3, [r3, #24]
 800261a:	009b      	lsls	r3, r3, #2
 800261c:	693a      	ldr	r2, [r7, #16]
 800261e:	4313      	orrs	r3, r2
 8002620:	613b      	str	r3, [r7, #16]
 8002622:	687b      	ldr	r3, [r7, #4]
 8002624:	693a      	ldr	r2, [r7, #16]
 8002626:	605a      	str	r2, [r3, #4]
 8002628:	687b      	ldr	r3, [r7, #4]
 800262a:	68fa      	ldr	r2, [r7, #12]
 800262c:	619a      	str	r2, [r3, #24]
 800262e:	683b      	ldr	r3, [r7, #0]
 8002630:	685a      	ldr	r2, [r3, #4]
 8002632:	687b      	ldr	r3, [r7, #4]
 8002634:	639a      	str	r2, [r3, #56]	; 0x38
 8002636:	687b      	ldr	r3, [r7, #4]
 8002638:	697a      	ldr	r2, [r7, #20]
 800263a:	621a      	str	r2, [r3, #32]
 800263c:	bf00      	nop
 800263e:	371c      	adds	r7, #28
 8002640:	46bd      	mov	sp, r7
 8002642:	f85d 7b04 	ldr.w	r7, [sp], #4
 8002646:	4770      	bx	lr
 8002648:	40010000 	.word	0x40010000
 800264c:	40010400 	.word	0x40010400

08002650 <TIM_CCxChannelCmd>:
 8002650:	b480      	push	{r7}
 8002652:	b087      	sub	sp, #28
 8002654:	af00      	add	r7, sp, #0
 8002656:	60f8      	str	r0, [r7, #12]
 8002658:	60b9      	str	r1, [r7, #8]
 800265a:	607a      	str	r2, [r7, #4]
 800265c:	2300      	movs	r3, #0
 800265e:	617b      	str	r3, [r7, #20]
 8002660:	2201      	movs	r2, #1
 8002662:	68bb      	ldr	r3, [r7, #8]
 8002664:	fa02 f303 	lsl.w	r3, r2, r3
 8002668:	617b      	str	r3, [r7, #20]
 800266a:	68fb      	ldr	r3, [r7, #12]
 800266c:	6a1a      	ldr	r2, [r3, #32]
 800266e:	697b      	ldr	r3, [r7, #20]
 8002670:	43db      	mvns	r3, r3
 8002672:	401a      	ands	r2, r3
 8002674:	68fb      	ldr	r3, [r7, #12]
 8002676:	621a      	str	r2, [r3, #32]
 8002678:	68fb      	ldr	r3, [r7, #12]
 800267a:	6a1a      	ldr	r2, [r3, #32]
 800267c:	6879      	ldr	r1, [r7, #4]
 800267e:	68bb      	ldr	r3, [r7, #8]
 8002680:	fa01 f303 	lsl.w	r3, r1, r3
 8002684:	431a      	orrs	r2, r3
 8002686:	68fb      	ldr	r3, [r7, #12]
 8002688:	621a      	str	r2, [r3, #32]
 800268a:	bf00      	nop
 800268c:	371c      	adds	r7, #28
 800268e:	46bd      	mov	sp, r7
 8002690:	f85d 7b04 	ldr.w	r7, [sp], #4
 8002694:	4770      	bx	lr
	...

08002698 <TIM_OC1_SetConfig>:
 8002698:	b480      	push	{r7}
 800269a:	b087      	sub	sp, #28
 800269c:	af00      	add	r7, sp, #0
 800269e:	6078      	str	r0, [r7, #4]
 80026a0:	6039      	str	r1, [r7, #0]
 80026a2:	2300      	movs	r3, #0
 80026a4:	60fb      	str	r3, [r7, #12]
 80026a6:	2300      	movs	r3, #0
 80026a8:	617b      	str	r3, [r7, #20]
 80026aa:	2300      	movs	r3, #0
 80026ac:	613b      	str	r3, [r7, #16]
 80026ae:	687b      	ldr	r3, [r7, #4]
 80026b0:	6a1b      	ldr	r3, [r3, #32]
 80026b2:	f023 0201 	bic.w	r2, r3, #1
 80026b6:	687b      	ldr	r3, [r7, #4]
 80026b8:	621a      	str	r2, [r3, #32]
 80026ba:	687b      	ldr	r3, [r7, #4]
 80026bc:	6a1b      	ldr	r3, [r3, #32]
 80026be:	617b      	str	r3, [r7, #20]
 80026c0:	687b      	ldr	r3, [r7, #4]
 80026c2:	685b      	ldr	r3, [r3, #4]
 80026c4:	613b      	str	r3, [r7, #16]
 80026c6:	687b      	ldr	r3, [r7, #4]
 80026c8:	699b      	ldr	r3, [r3, #24]
 80026ca:	60fb      	str	r3, [r7, #12]
 80026cc:	68fb      	ldr	r3, [r7, #12]
 80026ce:	f023 0370 	bic.w	r3, r3, #112	; 0x70
 80026d2:	60fb      	str	r3, [r7, #12]
 80026d4:	68fb      	ldr	r3, [r7, #12]
 80026d6:	f023 0303 	bic.w	r3, r3, #3
 80026da:	60fb      	str	r3, [r7, #12]
 80026dc:	683b      	ldr	r3, [r7, #0]
 80026de:	681b      	ldr	r3, [r3, #0]
 80026e0:	68fa      	ldr	r2, [r7, #12]
 80026e2:	4313      	orrs	r3, r2
 80026e4:	60fb      	str	r3, [r7, #12]
 80026e6:	697b      	ldr	r3, [r7, #20]
 80026e8:	f023 0302 	bic.w	r3, r3, #2
 80026ec:	617b      	str	r3, [r7, #20]
 80026ee:	683b      	ldr	r3, [r7, #0]
 80026f0:	689b      	ldr	r3, [r3, #8]
 80026f2:	697a      	ldr	r2, [r7, #20]
 80026f4:	4313      	orrs	r3, r2
 80026f6:	617b      	str	r3, [r7, #20]
 80026f8:	687b      	ldr	r3, [r7, #4]
 80026fa:	4a1f      	ldr	r2, [pc, #124]	; (8002778 <TIM_OC1_SetConfig+0xe0>)
 80026fc:	4293      	cmp	r3, r2
 80026fe:	d003      	beq.n	8002708 <TIM_OC1_SetConfig+0x70>
 8002700:	687b      	ldr	r3, [r7, #4]
 8002702:	4a1e      	ldr	r2, [pc, #120]	; (800277c <TIM_OC1_SetConfig+0xe4>)
 8002704:	4293      	cmp	r3, r2
 8002706:	d101      	bne.n	800270c <TIM_OC1_SetConfig+0x74>
 8002708:	2301      	movs	r3, #1
 800270a:	e000      	b.n	800270e <TIM_OC1_SetConfig+0x76>
 800270c:	2300      	movs	r3, #0
 800270e:	2b00      	cmp	r3, #0
 8002710:	d01e      	beq.n	8002750 <TIM_OC1_SetConfig+0xb8>
 8002712:	697b      	ldr	r3, [r7, #20]
 8002714:	f023 0308 	bic.w	r3, r3, #8
 8002718:	617b      	str	r3, [r7, #20]
 800271a:	683b      	ldr	r3, [r7, #0]
 800271c:	68db      	ldr	r3, [r3, #12]
 800271e:	697a      	ldr	r2, [r7, #20]
 8002720:	4313      	orrs	r3, r2
 8002722:	617b      	str	r3, [r7, #20]
 8002724:	697b      	ldr	r3, [r7, #20]
 8002726:	f023 0304 	bic.w	r3, r3, #4
 800272a:	617b      	str	r3, [r7, #20]
 800272c:	693b      	ldr	r3, [r7, #16]
 800272e:	f423 7380 	bic.w	r3, r3, #256	; 0x100
 8002732:	613b      	str	r3, [r7, #16]
 8002734:	693b      	ldr	r3, [r7, #16]
 8002736:	f423 7300 	bic.w	r3, r3, #512	; 0x200
 800273a:	613b      	str	r3, [r7, #16]
 800273c:	683b      	ldr	r3, [r7, #0]
 800273e:	695b      	ldr	r3, [r3, #20]
 8002740:	693a      	ldr	r2, [r7, #16]
 8002742:	4313      	orrs	r3, r2
 8002744:	613b      	str	r3, [r7, #16]
 8002746:	683b      	ldr	r3, [r7, #0]
 8002748:	699b      	ldr	r3, [r3, #24]
 800274a:	693a      	ldr	r2, [r7, #16]
 800274c:	4313      	orrs	r3, r2
 800274e:	613b      	str	r3, [r7, #16]
 8002750:	687b      	ldr	r3, [r7, #4]
 8002752:	693a      	ldr	r2, [r7, #16]
 8002754:	605a      	str	r2, [r3, #4]
 8002756:	687b      	ldr	r3, [r7, #4]
 8002758:	68fa      	ldr	r2, [r7, #12]
 800275a:	619a      	str	r2, [r3, #24]
 800275c:	683b      	ldr	r3, [r7, #0]
 800275e:	685a      	ldr	r2, [r3, #4]
 8002760:	687b      	ldr	r3, [r7, #4]
 8002762:	635a      	str	r2, [r3, #52]	; 0x34
 8002764:	687b      	ldr	r3, [r7, #4]
 8002766:	697a      	ldr	r2, [r7, #20]
 8002768:	621a      	str	r2, [r3, #32]
 800276a:	bf00      	nop
 800276c:	371c      	adds	r7, #28
 800276e:	46bd      	mov	sp, r7
 8002770:	f85d 7b04 	ldr.w	r7, [sp], #4
 8002774:	4770      	bx	lr
 8002776:	bf00      	nop
 8002778:	40010000 	.word	0x40010000
 800277c:	40010400 	.word	0x40010400

08002780 <TIM_OC3_SetConfig>:
 8002780:	b480      	push	{r7}
 8002782:	b087      	sub	sp, #28
 8002784:	af00      	add	r7, sp, #0
 8002786:	6078      	str	r0, [r7, #4]
 8002788:	6039      	str	r1, [r7, #0]
 800278a:	2300      	movs	r3, #0
 800278c:	60fb      	str	r3, [r7, #12]
 800278e:	2300      	movs	r3, #0
 8002790:	617b      	str	r3, [r7, #20]
 8002792:	2300      	movs	r3, #0
 8002794:	613b      	str	r3, [r7, #16]
 8002796:	687b      	ldr	r3, [r7, #4]
 8002798:	6a1b      	ldr	r3, [r3, #32]
 800279a:	f423 7280 	bic.w	r2, r3, #256	; 0x100
 800279e:	687b      	ldr	r3, [r7, #4]
 80027a0:	621a      	str	r2, [r3, #32]
 80027a2:	687b      	ldr	r3, [r7, #4]
 80027a4:	6a1b      	ldr	r3, [r3, #32]
 80027a6:	617b      	str	r3, [r7, #20]
 80027a8:	687b      	ldr	r3, [r7, #4]
 80027aa:	685b      	ldr	r3, [r3, #4]
 80027ac:	613b      	str	r3, [r7, #16]
 80027ae:	687b      	ldr	r3, [r7, #4]
 80027b0:	69db      	ldr	r3, [r3, #28]
 80027b2:	60fb      	str	r3, [r7, #12]
 80027b4:	68fb      	ldr	r3, [r7, #12]
 80027b6:	f023 0370 	bic.w	r3, r3, #112	; 0x70
 80027ba:	60fb      	str	r3, [r7, #12]
 80027bc:	68fb      	ldr	r3, [r7, #12]
 80027be:	f023 0303 	bic.w	r3, r3, #3
 80027c2:	60fb      	str	r3, [r7, #12]
 80027c4:	683b      	ldr	r3, [r7, #0]
 80027c6:	681b      	ldr	r3, [r3, #0]
 80027c8:	68fa      	ldr	r2, [r7, #12]
 80027ca:	4313      	orrs	r3, r2
 80027cc:	60fb      	str	r3, [r7, #12]
 80027ce:	697b      	ldr	r3, [r7, #20]
 80027d0:	f423 7300 	bic.w	r3, r3, #512	; 0x200
 80027d4:	617b      	str	r3, [r7, #20]
 80027d6:	683b      	ldr	r3, [r7, #0]
 80027d8:	689b      	ldr	r3, [r3, #8]
 80027da:	021b      	lsls	r3, r3, #8
 80027dc:	697a      	ldr	r2, [r7, #20]
 80027de:	4313      	orrs	r3, r2
 80027e0:	617b      	str	r3, [r7, #20]
 80027e2:	687b      	ldr	r3, [r7, #4]
 80027e4:	4a20      	ldr	r2, [pc, #128]	; (8002868 <TIM_OC3_SetConfig+0xe8>)
 80027e6:	4293      	cmp	r3, r2
 80027e8:	d003      	beq.n	80027f2 <TIM_OC3_SetConfig+0x72>
 80027ea:	687b      	ldr	r3, [r7, #4]
 80027ec:	4a1f      	ldr	r2, [pc, #124]	; (800286c <TIM_OC3_SetConfig+0xec>)
 80027ee:	4293      	cmp	r3, r2
 80027f0:	d101      	bne.n	80027f6 <TIM_OC3_SetConfig+0x76>
 80027f2:	2301      	movs	r3, #1
 80027f4:	e000      	b.n	80027f8 <TIM_OC3_SetConfig+0x78>
 80027f6:	2300      	movs	r3, #0
 80027f8:	2b00      	cmp	r3, #0
 80027fa:	d021      	beq.n	8002840 <TIM_OC3_SetConfig+0xc0>
 80027fc:	697b      	ldr	r3, [r7, #20]
 80027fe:	f423 6300 	bic.w	r3, r3, #2048	; 0x800
 8002802:	617b      	str	r3, [r7, #20]
 8002804:	683b      	ldr	r3, [r7, #0]
 8002806:	68db      	ldr	r3, [r3, #12]
 8002808:	021b      	lsls	r3, r3, #8
 800280a:	697a      	ldr	r2, [r7, #20]
 800280c:	4313      	orrs	r3, r2
 800280e:	617b      	str	r3, [r7, #20]
 8002810:	697b      	ldr	r3, [r7, #20]
 8002812:	f423 6380 	bic.w	r3, r3, #1024	; 0x400
 8002816:	617b      	str	r3, [r7, #20]
 8002818:	693b      	ldr	r3, [r7, #16]
 800281a:	f423 5380 	bic.w	r3, r3, #4096	; 0x1000
 800281e:	613b      	str	r3, [r7, #16]
 8002820:	693b      	ldr	r3, [r7, #16]
 8002822:	f423 5300 	bic.w	r3, r3, #8192	; 0x2000
 8002826:	613b      	str	r3, [r7, #16]
 8002828:	683b      	ldr	r3, [r7, #0]
 800282a:	695b      	ldr	r3, [r3, #20]
 800282c:	011b      	lsls	r3, r3, #4
 800282e:	693a      	ldr	r2, [r7, #16]
 8002830:	4313      	orrs	r3, r2
 8002832:	613b      	str	r3, [r7, #16]
 8002834:	683b      	ldr	r3, [r7, #0]
 8002836:	699b      	ldr	r3, [r3, #24]
 8002838:	011b      	lsls	r3, r3, #4
 800283a:	693a      	ldr	r2, [r7, #16]
 800283c:	4313      	orrs	r3, r2
 800283e:	613b      	str	r3, [r7, #16]
 8002840:	687b      	ldr	r3, [r7, #4]
 8002842:	693a      	ldr	r2, [r7, #16]
 8002844:	605a      	str	r2, [r3, #4]
 8002846:	687b      	ldr	r3, [r7, #4]
 8002848:	68fa      	ldr	r2, [r7, #12]
 800284a:	61da      	str	r2, [r3, #28]
 800284c:	683b      	ldr	r3, [r7, #0]
 800284e:	685a      	ldr	r2, [r3, #4]
 8002850:	687b      	ldr	r3, [r7, #4]
 8002852:	63da      	str	r2, [r3, #60]	; 0x3c
 8002854:	687b      	ldr	r3, [r7, #4]
 8002856:	697a      	ldr	r2, [r7, #20]
 8002858:	621a      	str	r2, [r3, #32]
 800285a:	bf00      	nop
 800285c:	371c      	adds	r7, #28
 800285e:	46bd      	mov	sp, r7
 8002860:	f85d 7b04 	ldr.w	r7, [sp], #4
 8002864:	4770      	bx	lr
 8002866:	bf00      	nop
 8002868:	40010000 	.word	0x40010000
 800286c:	40010400 	.word	0x40010400

08002870 <TIM_OC4_SetConfig>:
 8002870:	b480      	push	{r7}
 8002872:	b087      	sub	sp, #28
 8002874:	af00      	add	r7, sp, #0
 8002876:	6078      	str	r0, [r7, #4]
 8002878:	6039      	str	r1, [r7, #0]
 800287a:	2300      	movs	r3, #0
 800287c:	613b      	str	r3, [r7, #16]
 800287e:	2300      	movs	r3, #0
 8002880:	60fb      	str	r3, [r7, #12]
 8002882:	2300      	movs	r3, #0
 8002884:	617b      	str	r3, [r7, #20]
 8002886:	687b      	ldr	r3, [r7, #4]
 8002888:	6a1b      	ldr	r3, [r3, #32]
 800288a:	f423 5280 	bic.w	r2, r3, #4096	; 0x1000
 800288e:	687b      	ldr	r3, [r7, #4]
 8002890:	621a      	str	r2, [r3, #32]
 8002892:	687b      	ldr	r3, [r7, #4]
 8002894:	6a1b      	ldr	r3, [r3, #32]
 8002896:	60fb      	str	r3, [r7, #12]
 8002898:	687b      	ldr	r3, [r7, #4]
 800289a:	685b      	ldr	r3, [r3, #4]
 800289c:	617b      	str	r3, [r7, #20]
 800289e:	687b      	ldr	r3, [r7, #4]
 80028a0:	69db      	ldr	r3, [r3, #28]
 80028a2:	613b      	str	r3, [r7, #16]
 80028a4:	693b      	ldr	r3, [r7, #16]
 80028a6:	f423 43e0 	bic.w	r3, r3, #28672	; 0x7000
 80028aa:	613b      	str	r3, [r7, #16]
 80028ac:	693b      	ldr	r3, [r7, #16]
 80028ae:	f423 7340 	bic.w	r3, r3, #768	; 0x300
 80028b2:	613b      	str	r3, [r7, #16]
 80028b4:	683b      	ldr	r3, [r7, #0]
 80028b6:	681b      	ldr	r3, [r3, #0]
 80028b8:	021b      	lsls	r3, r3, #8
 80028ba:	693a      	ldr	r2, [r7, #16]
 80028bc:	4313      	orrs	r3, r2
 80028be:	613b      	str	r3, [r7, #16]
 80028c0:	68fb      	ldr	r3, [r7, #12]
 80028c2:	f423 5300 	bic.w	r3, r3, #8192	; 0x2000
 80028c6:	60fb      	str	r3, [r7, #12]
 80028c8:	683b      	ldr	r3, [r7, #0]
 80028ca:	689b      	ldr	r3, [r3, #8]
 80028cc:	031b      	lsls	r3, r3, #12
 80028ce:	68fa      	ldr	r2, [r7, #12]
 80028d0:	4313      	orrs	r3, r2
 80028d2:	60fb      	str	r3, [r7, #12]
 80028d4:	687b      	ldr	r3, [r7, #4]
 80028d6:	4a14      	ldr	r2, [pc, #80]	; (8002928 <TIM_OC4_SetConfig+0xb8>)
 80028d8:	4293      	cmp	r3, r2
 80028da:	d003      	beq.n	80028e4 <TIM_OC4_SetConfig+0x74>
 80028dc:	687b      	ldr	r3, [r7, #4]
 80028de:	4a13      	ldr	r2, [pc, #76]	; (800292c <TIM_OC4_SetConfig+0xbc>)
 80028e0:	4293      	cmp	r3, r2
 80028e2:	d101      	bne.n	80028e8 <TIM_OC4_SetConfig+0x78>
 80028e4:	2301      	movs	r3, #1
 80028e6:	e000      	b.n	80028ea <TIM_OC4_SetConfig+0x7a>
 80028e8:	2300      	movs	r3, #0
 80028ea:	2b00      	cmp	r3, #0
 80028ec:	d009      	beq.n	8002902 <TIM_OC4_SetConfig+0x92>
 80028ee:	697b      	ldr	r3, [r7, #20]
 80028f0:	f423 4380 	bic.w	r3, r3, #16384	; 0x4000
 80028f4:	617b      	str	r3, [r7, #20]
 80028f6:	683b      	ldr	r3, [r7, #0]
 80028f8:	695b      	ldr	r3, [r3, #20]
 80028fa:	019b      	lsls	r3, r3, #6
 80028fc:	697a      	ldr	r2, [r7, #20]
 80028fe:	4313      	orrs	r3, r2
 8002900:	617b      	str	r3, [r7, #20]
 8002902:	687b      	ldr	r3, [r7, #4]
 8002904:	697a      	ldr	r2, [r7, #20]
 8002906:	605a      	str	r2, [r3, #4]
 8002908:	687b      	ldr	r3, [r7, #4]
 800290a:	693a      	ldr	r2, [r7, #16]
 800290c:	61da      	str	r2, [r3, #28]
 800290e:	683b      	ldr	r3, [r7, #0]
 8002910:	685a      	ldr	r2, [r3, #4]
 8002912:	687b      	ldr	r3, [r7, #4]
 8002914:	641a      	str	r2, [r3, #64]	; 0x40
 8002916:	687b      	ldr	r3, [r7, #4]
 8002918:	68fa      	ldr	r2, [r7, #12]
 800291a:	621a      	str	r2, [r3, #32]
 800291c:	bf00      	nop
 800291e:	371c      	adds	r7, #28
 8002920:	46bd      	mov	sp, r7
 8002922:	f85d 7b04 	ldr.w	r7, [sp], #4
 8002926:	4770      	bx	lr
 8002928:	40010000 	.word	0x40010000
 800292c:	40010400 	.word	0x40010400

08002930 <TIM_TI1_ConfigInputStage>:
 8002930:	b480      	push	{r7}
 8002932:	b087      	sub	sp, #28
 8002934:	af00      	add	r7, sp, #0
 8002936:	60f8      	str	r0, [r7, #12]
 8002938:	60b9      	str	r1, [r7, #8]
 800293a:	607a      	str	r2, [r7, #4]
 800293c:	2300      	movs	r3, #0
 800293e:	617b      	str	r3, [r7, #20]
 8002940:	2300      	movs	r3, #0
 8002942:	613b      	str	r3, [r7, #16]
 8002944:	68fb      	ldr	r3, [r7, #12]
 8002946:	6a1b      	ldr	r3, [r3, #32]
 8002948:	613b      	str	r3, [r7, #16]
 800294a:	68fb      	ldr	r3, [r7, #12]
 800294c:	6a1b      	ldr	r3, [r3, #32]
 800294e:	f023 0201 	bic.w	r2, r3, #1
 8002952:	68fb      	ldr	r3, [r7, #12]
 8002954:	621a      	str	r2, [r3, #32]
 8002956:	68fb      	ldr	r3, [r7, #12]
 8002958:	699b      	ldr	r3, [r3, #24]
 800295a:	617b      	str	r3, [r7, #20]
 800295c:	697b      	ldr	r3, [r7, #20]
 800295e:	f023 03f0 	bic.w	r3, r3, #240	; 0xf0
 8002962:	617b      	str	r3, [r7, #20]
 8002964:	687b      	ldr	r3, [r7, #4]
 8002966:	011b      	lsls	r3, r3, #4
 8002968:	697a      	ldr	r2, [r7, #20]
 800296a:	4313      	orrs	r3, r2
 800296c:	617b      	str	r3, [r7, #20]
 800296e:	693b      	ldr	r3, [r7, #16]
 8002970:	f023 030a 	bic.w	r3, r3, #10
 8002974:	613b      	str	r3, [r7, #16]
 8002976:	693a      	ldr	r2, [r7, #16]
 8002978:	68bb      	ldr	r3, [r7, #8]
 800297a:	4313      	orrs	r3, r2
 800297c:	613b      	str	r3, [r7, #16]
 800297e:	68fb      	ldr	r3, [r7, #12]
 8002980:	697a      	ldr	r2, [r7, #20]
 8002982:	619a      	str	r2, [r3, #24]
 8002984:	68fb      	ldr	r3, [r7, #12]
 8002986:	693a      	ldr	r2, [r7, #16]
 8002988:	621a      	str	r2, [r3, #32]
 800298a:	bf00      	nop
 800298c:	371c      	adds	r7, #28
 800298e:	46bd      	mov	sp, r7
 8002990:	f85d 7b04 	ldr.w	r7, [sp], #4
 8002994:	4770      	bx	lr

08002996 <TIM_TI2_ConfigInputStage>:
 8002996:	b480      	push	{r7}
 8002998:	b087      	sub	sp, #28
 800299a:	af00      	add	r7, sp, #0
 800299c:	60f8      	str	r0, [r7, #12]
 800299e:	60b9      	str	r1, [r7, #8]
 80029a0:	607a      	str	r2, [r7, #4]
 80029a2:	2300      	movs	r3, #0
 80029a4:	617b      	str	r3, [r7, #20]
 80029a6:	2300      	movs	r3, #0
 80029a8:	613b      	str	r3, [r7, #16]
 80029aa:	68fb      	ldr	r3, [r7, #12]
 80029ac:	6a1b      	ldr	r3, [r3, #32]
 80029ae:	f023 0210 	bic.w	r2, r3, #16
 80029b2:	68fb      	ldr	r3, [r7, #12]
 80029b4:	621a      	str	r2, [r3, #32]
 80029b6:	68fb      	ldr	r3, [r7, #12]
 80029b8:	699b      	ldr	r3, [r3, #24]
 80029ba:	617b      	str	r3, [r7, #20]
 80029bc:	68fb      	ldr	r3, [r7, #12]
 80029be:	6a1b      	ldr	r3, [r3, #32]
 80029c0:	613b      	str	r3, [r7, #16]
 80029c2:	697b      	ldr	r3, [r7, #20]
 80029c4:	f423 4370 	bic.w	r3, r3, #61440	; 0xf000
 80029c8:	617b      	str	r3, [r7, #20]
 80029ca:	687b      	ldr	r3, [r7, #4]
 80029cc:	031b      	lsls	r3, r3, #12
 80029ce:	697a      	ldr	r2, [r7, #20]
 80029d0:	4313      	orrs	r3, r2
 80029d2:	617b      	str	r3, [r7, #20]
 80029d4:	693b      	ldr	r3, [r7, #16]
 80029d6:	f023 03a0 	bic.w	r3, r3, #160	; 0xa0
 80029da:	613b      	str	r3, [r7, #16]
 80029dc:	68bb      	ldr	r3, [r7, #8]
 80029de:	011b      	lsls	r3, r3, #4
 80029e0:	693a      	ldr	r2, [r7, #16]
 80029e2:	4313      	orrs	r3, r2
 80029e4:	613b      	str	r3, [r7, #16]
 80029e6:	68fb      	ldr	r3, [r7, #12]
 80029e8:	697a      	ldr	r2, [r7, #20]
 80029ea:	619a      	str	r2, [r3, #24]
 80029ec:	68fb      	ldr	r3, [r7, #12]
 80029ee:	693a      	ldr	r2, [r7, #16]
 80029f0:	621a      	str	r2, [r3, #32]
 80029f2:	bf00      	nop
 80029f4:	371c      	adds	r7, #28
 80029f6:	46bd      	mov	sp, r7
 80029f8:	f85d 7b04 	ldr.w	r7, [sp], #4
 80029fc:	4770      	bx	lr

080029fe <TIM_ITRx_SetConfig>:
 80029fe:	b480      	push	{r7}
 8002a00:	b085      	sub	sp, #20
 8002a02:	af00      	add	r7, sp, #0
 8002a04:	6078      	str	r0, [r7, #4]
 8002a06:	460b      	mov	r3, r1
 8002a08:	807b      	strh	r3, [r7, #2]
 8002a0a:	2300      	movs	r3, #0
 8002a0c:	60fb      	str	r3, [r7, #12]
 8002a0e:	687b      	ldr	r3, [r7, #4]
 8002a10:	689b      	ldr	r3, [r3, #8]
 8002a12:	60fb      	str	r3, [r7, #12]
 8002a14:	68fb      	ldr	r3, [r7, #12]
 8002a16:	f023 0370 	bic.w	r3, r3, #112	; 0x70
 8002a1a:	60fb      	str	r3, [r7, #12]
 8002a1c:	887b      	ldrh	r3, [r7, #2]
 8002a1e:	f043 0307 	orr.w	r3, r3, #7
 8002a22:	b29b      	uxth	r3, r3
 8002a24:	461a      	mov	r2, r3
 8002a26:	68fb      	ldr	r3, [r7, #12]
 8002a28:	4313      	orrs	r3, r2
 8002a2a:	60fb      	str	r3, [r7, #12]
 8002a2c:	687b      	ldr	r3, [r7, #4]
 8002a2e:	68fa      	ldr	r2, [r7, #12]
 8002a30:	609a      	str	r2, [r3, #8]
 8002a32:	bf00      	nop
 8002a34:	3714      	adds	r7, #20
 8002a36:	46bd      	mov	sp, r7
 8002a38:	f85d 7b04 	ldr.w	r7, [sp], #4
 8002a3c:	4770      	bx	lr

08002a3e <TIM_ETR_SetConfig>:
 8002a3e:	b480      	push	{r7}
 8002a40:	b087      	sub	sp, #28
 8002a42:	af00      	add	r7, sp, #0
 8002a44:	60f8      	str	r0, [r7, #12]
 8002a46:	60b9      	str	r1, [r7, #8]
 8002a48:	607a      	str	r2, [r7, #4]
 8002a4a:	603b      	str	r3, [r7, #0]
 8002a4c:	2300      	movs	r3, #0
 8002a4e:	617b      	str	r3, [r7, #20]
 8002a50:	68fb      	ldr	r3, [r7, #12]
 8002a52:	689b      	ldr	r3, [r3, #8]
 8002a54:	617b      	str	r3, [r7, #20]
 8002a56:	697b      	ldr	r3, [r7, #20]
 8002a58:	f423 437f 	bic.w	r3, r3, #65280	; 0xff00
 8002a5c:	617b      	str	r3, [r7, #20]
 8002a5e:	683b      	ldr	r3, [r7, #0]
 8002a60:	021a      	lsls	r2, r3, #8
 8002a62:	687b      	ldr	r3, [r7, #4]
 8002a64:	431a      	orrs	r2, r3
 8002a66:	68bb      	ldr	r3, [r7, #8]
 8002a68:	4313      	orrs	r3, r2
 8002a6a:	697a      	ldr	r2, [r7, #20]
 8002a6c:	4313      	orrs	r3, r2
 8002a6e:	617b      	str	r3, [r7, #20]
 8002a70:	68fb      	ldr	r3, [r7, #12]
 8002a72:	697a      	ldr	r2, [r7, #20]
 8002a74:	609a      	str	r2, [r3, #8]
 8002a76:	bf00      	nop
 8002a78:	371c      	adds	r7, #28
 8002a7a:	46bd      	mov	sp, r7
 8002a7c:	f85d 7b04 	ldr.w	r7, [sp], #4
 8002a80:	4770      	bx	lr

08002a82 <HAL_TIMEx_PWMN_Start>:
 8002a82:	b580      	push	{r7, lr}
 8002a84:	b082      	sub	sp, #8
 8002a86:	af00      	add	r7, sp, #0
 8002a88:	6078      	str	r0, [r7, #4]
 8002a8a:	6039      	str	r1, [r7, #0]
 8002a8c:	687b      	ldr	r3, [r7, #4]
 8002a8e:	681b      	ldr	r3, [r3, #0]
 8002a90:	2204      	movs	r2, #4
 8002a92:	6839      	ldr	r1, [r7, #0]
 8002a94:	4618      	mov	r0, r3
 8002a96:	f000 f8b3 	bl	8002c00 <TIM_CCxNChannelCmd>
 8002a9a:	687b      	ldr	r3, [r7, #4]
 8002a9c:	681b      	ldr	r3, [r3, #0]
 8002a9e:	6c5a      	ldr	r2, [r3, #68]	; 0x44
 8002aa0:	687b      	ldr	r3, [r7, #4]
 8002aa2:	681b      	ldr	r3, [r3, #0]
 8002aa4:	f442 4200 	orr.w	r2, r2, #32768	; 0x8000
 8002aa8:	645a      	str	r2, [r3, #68]	; 0x44
 8002aaa:	687b      	ldr	r3, [r7, #4]
 8002aac:	681b      	ldr	r3, [r3, #0]
 8002aae:	681a      	ldr	r2, [r3, #0]
 8002ab0:	687b      	ldr	r3, [r7, #4]
 8002ab2:	681b      	ldr	r3, [r3, #0]
 8002ab4:	f042 0201 	orr.w	r2, r2, #1
 8002ab8:	601a      	str	r2, [r3, #0]
 8002aba:	2300      	movs	r3, #0
 8002abc:	4618      	mov	r0, r3
 8002abe:	3708      	adds	r7, #8
 8002ac0:	46bd      	mov	sp, r7
 8002ac2:	bd80      	pop	{r7, pc}

08002ac4 <HAL_TIMEx_MasterConfigSynchronization>:
 8002ac4:	b480      	push	{r7}
 8002ac6:	b083      	sub	sp, #12
 8002ac8:	af00      	add	r7, sp, #0
 8002aca:	6078      	str	r0, [r7, #4]
 8002acc:	6039      	str	r1, [r7, #0]
 8002ace:	687b      	ldr	r3, [r7, #4]
 8002ad0:	f893 3038 	ldrb.w	r3, [r3, #56]	; 0x38
 8002ad4:	2b01      	cmp	r3, #1
 8002ad6:	d101      	bne.n	8002adc <HAL_TIMEx_MasterConfigSynchronization+0x18>
 8002ad8:	2302      	movs	r3, #2
 8002ada:	e032      	b.n	8002b42 <HAL_TIMEx_MasterConfigSynchronization+0x7e>
 8002adc:	687b      	ldr	r3, [r7, #4]
 8002ade:	2201      	movs	r2, #1
 8002ae0:	f883 2038 	strb.w	r2, [r3, #56]	; 0x38
 8002ae4:	687b      	ldr	r3, [r7, #4]
 8002ae6:	2202      	movs	r2, #2
 8002ae8:	f883 2039 	strb.w	r2, [r3, #57]	; 0x39
 8002aec:	687b      	ldr	r3, [r7, #4]
 8002aee:	681b      	ldr	r3, [r3, #0]
 8002af0:	685a      	ldr	r2, [r3, #4]
 8002af2:	687b      	ldr	r3, [r7, #4]
 8002af4:	681b      	ldr	r3, [r3, #0]
 8002af6:	f022 0270 	bic.w	r2, r2, #112	; 0x70
 8002afa:	605a      	str	r2, [r3, #4]
 8002afc:	687b      	ldr	r3, [r7, #4]
 8002afe:	681b      	ldr	r3, [r3, #0]
 8002b00:	6859      	ldr	r1, [r3, #4]
 8002b02:	683b      	ldr	r3, [r7, #0]
 8002b04:	681a      	ldr	r2, [r3, #0]
 8002b06:	687b      	ldr	r3, [r7, #4]
 8002b08:	681b      	ldr	r3, [r3, #0]
 8002b0a:	430a      	orrs	r2, r1
 8002b0c:	605a      	str	r2, [r3, #4]
 8002b0e:	687b      	ldr	r3, [r7, #4]
 8002b10:	681b      	ldr	r3, [r3, #0]
 8002b12:	689a      	ldr	r2, [r3, #8]
 8002b14:	687b      	ldr	r3, [r7, #4]
 8002b16:	681b      	ldr	r3, [r3, #0]
 8002b18:	f022 0280 	bic.w	r2, r2, #128	; 0x80
 8002b1c:	609a      	str	r2, [r3, #8]
 8002b1e:	687b      	ldr	r3, [r7, #4]
 8002b20:	681b      	ldr	r3, [r3, #0]
 8002b22:	6899      	ldr	r1, [r3, #8]
 8002b24:	683b      	ldr	r3, [r7, #0]
 8002b26:	685a      	ldr	r2, [r3, #4]
 8002b28:	687b      	ldr	r3, [r7, #4]
 8002b2a:	681b      	ldr	r3, [r3, #0]
 8002b2c:	430a      	orrs	r2, r1
 8002b2e:	609a      	str	r2, [r3, #8]
 8002b30:	687b      	ldr	r3, [r7, #4]
 8002b32:	2201      	movs	r2, #1
 8002b34:	f883 2039 	strb.w	r2, [r3, #57]	; 0x39
 8002b38:	687b      	ldr	r3, [r7, #4]
 8002b3a:	2200      	movs	r2, #0
 8002b3c:	f883 2038 	strb.w	r2, [r3, #56]	; 0x38
 8002b40:	2300      	movs	r3, #0
 8002b42:	4618      	mov	r0, r3
 8002b44:	370c      	adds	r7, #12
 8002b46:	46bd      	mov	sp, r7
 8002b48:	f85d 7b04 	ldr.w	r7, [sp], #4
 8002b4c:	4770      	bx	lr

08002b4e <HAL_TIMEx_ConfigBreakDeadTime>:
 8002b4e:	b480      	push	{r7}
 8002b50:	b085      	sub	sp, #20
 8002b52:	af00      	add	r7, sp, #0
 8002b54:	6078      	str	r0, [r7, #4]
 8002b56:	6039      	str	r1, [r7, #0]
 8002b58:	2300      	movs	r3, #0
 8002b5a:	60fb      	str	r3, [r7, #12]
 8002b5c:	687b      	ldr	r3, [r7, #4]
 8002b5e:	f893 3038 	ldrb.w	r3, [r3, #56]	; 0x38
 8002b62:	2b01      	cmp	r3, #1
 8002b64:	d101      	bne.n	8002b6a <HAL_TIMEx_ConfigBreakDeadTime+0x1c>
 8002b66:	2302      	movs	r3, #2
 8002b68:	e044      	b.n	8002bf4 <HAL_TIMEx_ConfigBreakDeadTime+0xa6>
 8002b6a:	687b      	ldr	r3, [r7, #4]
 8002b6c:	2201      	movs	r2, #1
 8002b6e:	f883 2038 	strb.w	r2, [r3, #56]	; 0x38
 8002b72:	68fb      	ldr	r3, [r7, #12]
 8002b74:	f023 02ff 	bic.w	r2, r3, #255	; 0xff
 8002b78:	683b      	ldr	r3, [r7, #0]
 8002b7a:	68db      	ldr	r3, [r3, #12]
 8002b7c:	4313      	orrs	r3, r2
 8002b7e:	60fb      	str	r3, [r7, #12]
 8002b80:	68fb      	ldr	r3, [r7, #12]
 8002b82:	f423 7240 	bic.w	r2, r3, #768	; 0x300
 8002b86:	683b      	ldr	r3, [r7, #0]
 8002b88:	689b      	ldr	r3, [r3, #8]
 8002b8a:	4313      	orrs	r3, r2
 8002b8c:	60fb      	str	r3, [r7, #12]
 8002b8e:	68fb      	ldr	r3, [r7, #12]
 8002b90:	f423 6280 	bic.w	r2, r3, #1024	; 0x400
 8002b94:	683b      	ldr	r3, [r7, #0]
 8002b96:	685b      	ldr	r3, [r3, #4]
 8002b98:	4313      	orrs	r3, r2
 8002b9a:	60fb      	str	r3, [r7, #12]
 8002b9c:	68fb      	ldr	r3, [r7, #12]
 8002b9e:	f423 6200 	bic.w	r2, r3, #2048	; 0x800
 8002ba2:	683b      	ldr	r3, [r7, #0]
 8002ba4:	681b      	ldr	r3, [r3, #0]
 8002ba6:	4313      	orrs	r3, r2
 8002ba8:	60fb      	str	r3, [r7, #12]
 8002baa:	68fb      	ldr	r3, [r7, #12]
 8002bac:	f423 5280 	bic.w	r2, r3, #4096	; 0x1000
 8002bb0:	683b      	ldr	r3, [r7, #0]
 8002bb2:	691b      	ldr	r3, [r3, #16]
 8002bb4:	4313      	orrs	r3, r2
 8002bb6:	60fb      	str	r3, [r7, #12]
 8002bb8:	68fb      	ldr	r3, [r7, #12]
 8002bba:	f423 5200 	bic.w	r2, r3, #8192	; 0x2000
 8002bbe:	683b      	ldr	r3, [r7, #0]
 8002bc0:	695b      	ldr	r3, [r3, #20]
 8002bc2:	4313      	orrs	r3, r2
 8002bc4:	60fb      	str	r3, [r7, #12]
 8002bc6:	68fb      	ldr	r3, [r7, #12]
 8002bc8:	f423 4280 	bic.w	r2, r3, #16384	; 0x4000
 8002bcc:	683b      	ldr	r3, [r7, #0]
 8002bce:	699b      	ldr	r3, [r3, #24]
 8002bd0:	4313      	orrs	r3, r2
 8002bd2:	60fb      	str	r3, [r7, #12]
 8002bd4:	68fb      	ldr	r3, [r7, #12]
 8002bd6:	f423 4200 	bic.w	r2, r3, #32768	; 0x8000
 8002bda:	683b      	ldr	r3, [r7, #0]
 8002bdc:	699b      	ldr	r3, [r3, #24]
 8002bde:	4313      	orrs	r3, r2
 8002be0:	60fb      	str	r3, [r7, #12]
 8002be2:	687b      	ldr	r3, [r7, #4]
 8002be4:	681b      	ldr	r3, [r3, #0]
 8002be6:	68fa      	ldr	r2, [r7, #12]
 8002be8:	645a      	str	r2, [r3, #68]	; 0x44
 8002bea:	687b      	ldr	r3, [r7, #4]
 8002bec:	2200      	movs	r2, #0
 8002bee:	f883 2038 	strb.w	r2, [r3, #56]	; 0x38
 8002bf2:	2300      	movs	r3, #0
 8002bf4:	4618      	mov	r0, r3
 8002bf6:	3714      	adds	r7, #20
 8002bf8:	46bd      	mov	sp, r7
 8002bfa:	f85d 7b04 	ldr.w	r7, [sp], #4
 8002bfe:	4770      	bx	lr

08002c00 <TIM_CCxNChannelCmd>:
 8002c00:	b480      	push	{r7}
 8002c02:	b087      	sub	sp, #28
 8002c04:	af00      	add	r7, sp, #0
 8002c06:	60f8      	str	r0, [r7, #12]
 8002c08:	60b9      	str	r1, [r7, #8]
 8002c0a:	607a      	str	r2, [r7, #4]
 8002c0c:	2300      	movs	r3, #0
 8002c0e:	617b      	str	r3, [r7, #20]
 8002c10:	2204      	movs	r2, #4
 8002c12:	68bb      	ldr	r3, [r7, #8]
 8002c14:	fa02 f303 	lsl.w	r3, r2, r3
 8002c18:	617b      	str	r3, [r7, #20]
 8002c1a:	68fb      	ldr	r3, [r7, #12]
 8002c1c:	6a1a      	ldr	r2, [r3, #32]
 8002c1e:	697b      	ldr	r3, [r7, #20]
 8002c20:	43db      	mvns	r3, r3
 8002c22:	401a      	ands	r2, r3
 8002c24:	68fb      	ldr	r3, [r7, #12]
 8002c26:	621a      	str	r2, [r3, #32]
 8002c28:	68fb      	ldr	r3, [r7, #12]
 8002c2a:	6a1a      	ldr	r2, [r3, #32]
 8002c2c:	6879      	ldr	r1, [r7, #4]
 8002c2e:	68bb      	ldr	r3, [r7, #8]
 8002c30:	fa01 f303 	lsl.w	r3, r1, r3
 8002c34:	431a      	orrs	r2, r3
 8002c36:	68fb      	ldr	r3, [r7, #12]
 8002c38:	621a      	str	r2, [r3, #32]
 8002c3a:	bf00      	nop
 8002c3c:	371c      	adds	r7, #28
 8002c3e:	46bd      	mov	sp, r7
 8002c40:	f85d 7b04 	ldr.w	r7, [sp], #4
 8002c44:	4770      	bx	lr

08002c46 <HAL_UART_Init>:
 8002c46:	b580      	push	{r7, lr}
 8002c48:	b082      	sub	sp, #8
 8002c4a:	af00      	add	r7, sp, #0
 8002c4c:	6078      	str	r0, [r7, #4]
 8002c4e:	687b      	ldr	r3, [r7, #4]
 8002c50:	2b00      	cmp	r3, #0
 8002c52:	d101      	bne.n	8002c58 <HAL_UART_Init+0x12>
 8002c54:	2301      	movs	r3, #1
 8002c56:	e03f      	b.n	8002cd8 <HAL_UART_Init+0x92>
 8002c58:	687b      	ldr	r3, [r7, #4]
 8002c5a:	f893 3039 	ldrb.w	r3, [r3, #57]	; 0x39
 8002c5e:	b2db      	uxtb	r3, r3
 8002c60:	2b00      	cmp	r3, #0
 8002c62:	d106      	bne.n	8002c72 <HAL_UART_Init+0x2c>
 8002c64:	687b      	ldr	r3, [r7, #4]
 8002c66:	2200      	movs	r2, #0
 8002c68:	f883 2038 	strb.w	r2, [r3, #56]	; 0x38
 8002c6c:	6878      	ldr	r0, [r7, #4]
 8002c6e:	f000 f837 	bl	8002ce0 <HAL_UART_MspInit>
 8002c72:	687b      	ldr	r3, [r7, #4]
 8002c74:	2224      	movs	r2, #36	; 0x24
 8002c76:	f883 2039 	strb.w	r2, [r3, #57]	; 0x39
 8002c7a:	687b      	ldr	r3, [r7, #4]
 8002c7c:	681b      	ldr	r3, [r3, #0]
 8002c7e:	68da      	ldr	r2, [r3, #12]
 8002c80:	687b      	ldr	r3, [r7, #4]
 8002c82:	681b      	ldr	r3, [r3, #0]
 8002c84:	f422 5200 	bic.w	r2, r2, #8192	; 0x2000
 8002c88:	60da      	str	r2, [r3, #12]
 8002c8a:	6878      	ldr	r0, [r7, #4]
 8002c8c:	f000 f916 	bl	8002ebc <UART_SetConfig>
 8002c90:	687b      	ldr	r3, [r7, #4]
 8002c92:	681b      	ldr	r3, [r3, #0]
 8002c94:	691a      	ldr	r2, [r3, #16]
 8002c96:	687b      	ldr	r3, [r7, #4]
 8002c98:	681b      	ldr	r3, [r3, #0]
 8002c9a:	f422 4290 	bic.w	r2, r2, #18432	; 0x4800
 8002c9e:	611a      	str	r2, [r3, #16]
 8002ca0:	687b      	ldr	r3, [r7, #4]
 8002ca2:	681b      	ldr	r3, [r3, #0]
 8002ca4:	695a      	ldr	r2, [r3, #20]
 8002ca6:	687b      	ldr	r3, [r7, #4]
 8002ca8:	681b      	ldr	r3, [r3, #0]
 8002caa:	f022 022a 	bic.w	r2, r2, #42	; 0x2a
 8002cae:	615a      	str	r2, [r3, #20]
 8002cb0:	687b      	ldr	r3, [r7, #4]
 8002cb2:	681b      	ldr	r3, [r3, #0]
 8002cb4:	68da      	ldr	r2, [r3, #12]
 8002cb6:	687b      	ldr	r3, [r7, #4]
 8002cb8:	681b      	ldr	r3, [r3, #0]
 8002cba:	f442 5200 	orr.w	r2, r2, #8192	; 0x2000
 8002cbe:	60da      	str	r2, [r3, #12]
 8002cc0:	687b      	ldr	r3, [r7, #4]
 8002cc2:	2200      	movs	r2, #0
 8002cc4:	63da      	str	r2, [r3, #60]	; 0x3c
 8002cc6:	687b      	ldr	r3, [r7, #4]
 8002cc8:	2220      	movs	r2, #32
 8002cca:	f883 2039 	strb.w	r2, [r3, #57]	; 0x39
 8002cce:	687b      	ldr	r3, [r7, #4]
 8002cd0:	2220      	movs	r2, #32
 8002cd2:	f883 203a 	strb.w	r2, [r3, #58]	; 0x3a
 8002cd6:	2300      	movs	r3, #0
 8002cd8:	4618      	mov	r0, r3
 8002cda:	3708      	adds	r7, #8
 8002cdc:	46bd      	mov	sp, r7
 8002cde:	bd80      	pop	{r7, pc}

08002ce0 <HAL_UART_MspInit>:
 8002ce0:	b480      	push	{r7}
 8002ce2:	b083      	sub	sp, #12
 8002ce4:	af00      	add	r7, sp, #0
 8002ce6:	6078      	str	r0, [r7, #4]
 8002ce8:	bf00      	nop
 8002cea:	370c      	adds	r7, #12
 8002cec:	46bd      	mov	sp, r7
 8002cee:	f85d 7b04 	ldr.w	r7, [sp], #4
 8002cf2:	4770      	bx	lr

08002cf4 <HAL_UART_Transmit>:
 8002cf4:	b580      	push	{r7, lr}
 8002cf6:	b088      	sub	sp, #32
 8002cf8:	af02      	add	r7, sp, #8
 8002cfa:	60f8      	str	r0, [r7, #12]
 8002cfc:	60b9      	str	r1, [r7, #8]
 8002cfe:	603b      	str	r3, [r7, #0]
 8002d00:	4613      	mov	r3, r2
 8002d02:	80fb      	strh	r3, [r7, #6]
 8002d04:	2300      	movs	r3, #0
 8002d06:	617b      	str	r3, [r7, #20]
 8002d08:	68fb      	ldr	r3, [r7, #12]
 8002d0a:	f893 3039 	ldrb.w	r3, [r3, #57]	; 0x39
 8002d0e:	b2db      	uxtb	r3, r3
 8002d10:	2b20      	cmp	r3, #32
 8002d12:	f040 8083 	bne.w	8002e1c <HAL_UART_Transmit+0x128>
 8002d16:	68bb      	ldr	r3, [r7, #8]
 8002d18:	2b00      	cmp	r3, #0
 8002d1a:	d002      	beq.n	8002d22 <HAL_UART_Transmit+0x2e>
 8002d1c:	88fb      	ldrh	r3, [r7, #6]
 8002d1e:	2b00      	cmp	r3, #0
 8002d20:	d101      	bne.n	8002d26 <HAL_UART_Transmit+0x32>
 8002d22:	2301      	movs	r3, #1
 8002d24:	e07b      	b.n	8002e1e <HAL_UART_Transmit+0x12a>
 8002d26:	68fb      	ldr	r3, [r7, #12]
 8002d28:	f893 3038 	ldrb.w	r3, [r3, #56]	; 0x38
 8002d2c:	2b01      	cmp	r3, #1
 8002d2e:	d101      	bne.n	8002d34 <HAL_UART_Transmit+0x40>
 8002d30:	2302      	movs	r3, #2
 8002d32:	e074      	b.n	8002e1e <HAL_UART_Transmit+0x12a>
 8002d34:	68fb      	ldr	r3, [r7, #12]
 8002d36:	2201      	movs	r2, #1
 8002d38:	f883 2038 	strb.w	r2, [r3, #56]	; 0x38
 8002d3c:	68fb      	ldr	r3, [r7, #12]
 8002d3e:	2200      	movs	r2, #0
 8002d40:	63da      	str	r2, [r3, #60]	; 0x3c
 8002d42:	68fb      	ldr	r3, [r7, #12]
 8002d44:	2221      	movs	r2, #33	; 0x21
 8002d46:	f883 2039 	strb.w	r2, [r3, #57]	; 0x39
 8002d4a:	f7fd fc25 	bl	8000598 <HAL_GetTick>
 8002d4e:	6178      	str	r0, [r7, #20]
 8002d50:	68fb      	ldr	r3, [r7, #12]
 8002d52:	88fa      	ldrh	r2, [r7, #6]
 8002d54:	849a      	strh	r2, [r3, #36]	; 0x24
 8002d56:	68fb      	ldr	r3, [r7, #12]
 8002d58:	88fa      	ldrh	r2, [r7, #6]
 8002d5a:	84da      	strh	r2, [r3, #38]	; 0x26
 8002d5c:	e042      	b.n	8002de4 <HAL_UART_Transmit+0xf0>
 8002d5e:	68fb      	ldr	r3, [r7, #12]
 8002d60:	8cdb      	ldrh	r3, [r3, #38]	; 0x26
 8002d62:	b29b      	uxth	r3, r3
 8002d64:	3b01      	subs	r3, #1
 8002d66:	b29a      	uxth	r2, r3
 8002d68:	68fb      	ldr	r3, [r7, #12]
 8002d6a:	84da      	strh	r2, [r3, #38]	; 0x26
 8002d6c:	68fb      	ldr	r3, [r7, #12]
 8002d6e:	689b      	ldr	r3, [r3, #8]
 8002d70:	f5b3 5f80 	cmp.w	r3, #4096	; 0x1000
 8002d74:	d122      	bne.n	8002dbc <HAL_UART_Transmit+0xc8>
 8002d76:	683b      	ldr	r3, [r7, #0]
 8002d78:	9300      	str	r3, [sp, #0]
 8002d7a:	697b      	ldr	r3, [r7, #20]
 8002d7c:	2200      	movs	r2, #0
 8002d7e:	2180      	movs	r1, #128	; 0x80
 8002d80:	68f8      	ldr	r0, [r7, #12]
 8002d82:	f000 f850 	bl	8002e26 <UART_WaitOnFlagUntilTimeout>
 8002d86:	4603      	mov	r3, r0
 8002d88:	2b00      	cmp	r3, #0
 8002d8a:	d001      	beq.n	8002d90 <HAL_UART_Transmit+0x9c>
 8002d8c:	2303      	movs	r3, #3
 8002d8e:	e046      	b.n	8002e1e <HAL_UART_Transmit+0x12a>
 8002d90:	68bb      	ldr	r3, [r7, #8]
 8002d92:	613b      	str	r3, [r7, #16]
 8002d94:	693b      	ldr	r3, [r7, #16]
 8002d96:	881b      	ldrh	r3, [r3, #0]
 8002d98:	461a      	mov	r2, r3
 8002d9a:	68fb      	ldr	r3, [r7, #12]
 8002d9c:	681b      	ldr	r3, [r3, #0]
 8002d9e:	f3c2 0208 	ubfx	r2, r2, #0, #9
 8002da2:	605a      	str	r2, [r3, #4]
 8002da4:	68fb      	ldr	r3, [r7, #12]
 8002da6:	691b      	ldr	r3, [r3, #16]
 8002da8:	2b00      	cmp	r3, #0
 8002daa:	d103      	bne.n	8002db4 <HAL_UART_Transmit+0xc0>
 8002dac:	68bb      	ldr	r3, [r7, #8]
 8002dae:	3302      	adds	r3, #2
 8002db0:	60bb      	str	r3, [r7, #8]
 8002db2:	e017      	b.n	8002de4 <HAL_UART_Transmit+0xf0>
 8002db4:	68bb      	ldr	r3, [r7, #8]
 8002db6:	3301      	adds	r3, #1
 8002db8:	60bb      	str	r3, [r7, #8]
 8002dba:	e013      	b.n	8002de4 <HAL_UART_Transmit+0xf0>
 8002dbc:	683b      	ldr	r3, [r7, #0]
 8002dbe:	9300      	str	r3, [sp, #0]
 8002dc0:	697b      	ldr	r3, [r7, #20]
 8002dc2:	2200      	movs	r2, #0
 8002dc4:	2180      	movs	r1, #128	; 0x80
 8002dc6:	68f8      	ldr	r0, [r7, #12]
 8002dc8:	f000 f82d 	bl	8002e26 <UART_WaitOnFlagUntilTimeout>
 8002dcc:	4603      	mov	r3, r0
 8002dce:	2b00      	cmp	r3, #0
 8002dd0:	d001      	beq.n	8002dd6 <HAL_UART_Transmit+0xe2>
 8002dd2:	2303      	movs	r3, #3
 8002dd4:	e023      	b.n	8002e1e <HAL_UART_Transmit+0x12a>
 8002dd6:	68bb      	ldr	r3, [r7, #8]
 8002dd8:	1c5a      	adds	r2, r3, #1
 8002dda:	60ba      	str	r2, [r7, #8]
 8002ddc:	781a      	ldrb	r2, [r3, #0]
 8002dde:	68fb      	ldr	r3, [r7, #12]
 8002de0:	681b      	ldr	r3, [r3, #0]
 8002de2:	605a      	str	r2, [r3, #4]
 8002de4:	68fb      	ldr	r3, [r7, #12]
 8002de6:	8cdb      	ldrh	r3, [r3, #38]	; 0x26
 8002de8:	b29b      	uxth	r3, r3
 8002dea:	2b00      	cmp	r3, #0
 8002dec:	d1b7      	bne.n	8002d5e <HAL_UART_Transmit+0x6a>
 8002dee:	683b      	ldr	r3, [r7, #0]
 8002df0:	9300      	str	r3, [sp, #0]
 8002df2:	697b      	ldr	r3, [r7, #20]
 8002df4:	2200      	movs	r2, #0
 8002df6:	2140      	movs	r1, #64	; 0x40
 8002df8:	68f8      	ldr	r0, [r7, #12]
 8002dfa:	f000 f814 	bl	8002e26 <UART_WaitOnFlagUntilTimeout>
 8002dfe:	4603      	mov	r3, r0
 8002e00:	2b00      	cmp	r3, #0
 8002e02:	d001      	beq.n	8002e08 <HAL_UART_Transmit+0x114>
 8002e04:	2303      	movs	r3, #3
 8002e06:	e00a      	b.n	8002e1e <HAL_UART_Transmit+0x12a>
 8002e08:	68fb      	ldr	r3, [r7, #12]
 8002e0a:	2220      	movs	r2, #32
 8002e0c:	f883 2039 	strb.w	r2, [r3, #57]	; 0x39
 8002e10:	68fb      	ldr	r3, [r7, #12]
 8002e12:	2200      	movs	r2, #0
 8002e14:	f883 2038 	strb.w	r2, [r3, #56]	; 0x38
 8002e18:	2300      	movs	r3, #0
 8002e1a:	e000      	b.n	8002e1e <HAL_UART_Transmit+0x12a>
 8002e1c:	2302      	movs	r3, #2
 8002e1e:	4618      	mov	r0, r3
 8002e20:	3718      	adds	r7, #24
 8002e22:	46bd      	mov	sp, r7
 8002e24:	bd80      	pop	{r7, pc}

08002e26 <UART_WaitOnFlagUntilTimeout>:
 8002e26:	b580      	push	{r7, lr}
 8002e28:	b084      	sub	sp, #16
 8002e2a:	af00      	add	r7, sp, #0
 8002e2c:	60f8      	str	r0, [r7, #12]
 8002e2e:	60b9      	str	r1, [r7, #8]
 8002e30:	603b      	str	r3, [r7, #0]
 8002e32:	4613      	mov	r3, r2
 8002e34:	71fb      	strb	r3, [r7, #7]
 8002e36:	e02c      	b.n	8002e92 <UART_WaitOnFlagUntilTimeout+0x6c>
 8002e38:	69bb      	ldr	r3, [r7, #24]
 8002e3a:	f1b3 3fff 	cmp.w	r3, #4294967295
 8002e3e:	d028      	beq.n	8002e92 <UART_WaitOnFlagUntilTimeout+0x6c>
 8002e40:	69bb      	ldr	r3, [r7, #24]
 8002e42:	2b00      	cmp	r3, #0
 8002e44:	d007      	beq.n	8002e56 <UART_WaitOnFlagUntilTimeout+0x30>
 8002e46:	f7fd fba7 	bl	8000598 <HAL_GetTick>
 8002e4a:	4602      	mov	r2, r0
 8002e4c:	683b      	ldr	r3, [r7, #0]
 8002e4e:	1ad3      	subs	r3, r2, r3
 8002e50:	69ba      	ldr	r2, [r7, #24]
 8002e52:	429a      	cmp	r2, r3
 8002e54:	d21d      	bcs.n	8002e92 <UART_WaitOnFlagUntilTimeout+0x6c>
 8002e56:	68fb      	ldr	r3, [r7, #12]
 8002e58:	681b      	ldr	r3, [r3, #0]
 8002e5a:	68da      	ldr	r2, [r3, #12]
 8002e5c:	68fb      	ldr	r3, [r7, #12]
 8002e5e:	681b      	ldr	r3, [r3, #0]
 8002e60:	f422 72d0 	bic.w	r2, r2, #416	; 0x1a0
 8002e64:	60da      	str	r2, [r3, #12]
 8002e66:	68fb      	ldr	r3, [r7, #12]
 8002e68:	681b      	ldr	r3, [r3, #0]
 8002e6a:	695a      	ldr	r2, [r3, #20]
 8002e6c:	68fb      	ldr	r3, [r7, #12]
 8002e6e:	681b      	ldr	r3, [r3, #0]
 8002e70:	f022 0201 	bic.w	r2, r2, #1
 8002e74:	615a      	str	r2, [r3, #20]
 8002e76:	68fb      	ldr	r3, [r7, #12]
 8002e78:	2220      	movs	r2, #32
 8002e7a:	f883 2039 	strb.w	r2, [r3, #57]	; 0x39
 8002e7e:	68fb      	ldr	r3, [r7, #12]
 8002e80:	2220      	movs	r2, #32
 8002e82:	f883 203a 	strb.w	r2, [r3, #58]	; 0x3a
 8002e86:	68fb      	ldr	r3, [r7, #12]
 8002e88:	2200      	movs	r2, #0
 8002e8a:	f883 2038 	strb.w	r2, [r3, #56]	; 0x38
 8002e8e:	2303      	movs	r3, #3
 8002e90:	e00f      	b.n	8002eb2 <UART_WaitOnFlagUntilTimeout+0x8c>
 8002e92:	68fb      	ldr	r3, [r7, #12]
 8002e94:	681b      	ldr	r3, [r3, #0]
 8002e96:	681a      	ldr	r2, [r3, #0]
 8002e98:	68bb      	ldr	r3, [r7, #8]
 8002e9a:	4013      	ands	r3, r2
 8002e9c:	68ba      	ldr	r2, [r7, #8]
 8002e9e:	429a      	cmp	r2, r3
 8002ea0:	bf0c      	ite	eq
 8002ea2:	2301      	moveq	r3, #1
 8002ea4:	2300      	movne	r3, #0
 8002ea6:	b2db      	uxtb	r3, r3
 8002ea8:	461a      	mov	r2, r3
 8002eaa:	79fb      	ldrb	r3, [r7, #7]
 8002eac:	429a      	cmp	r2, r3
 8002eae:	d0c3      	beq.n	8002e38 <UART_WaitOnFlagUntilTimeout+0x12>
 8002eb0:	2300      	movs	r3, #0
 8002eb2:	4618      	mov	r0, r3
 8002eb4:	3710      	adds	r7, #16
 8002eb6:	46bd      	mov	sp, r7
 8002eb8:	bd80      	pop	{r7, pc}
	...

08002ebc <UART_SetConfig>:
 8002ebc:	b5b0      	push	{r4, r5, r7, lr}
 8002ebe:	b084      	sub	sp, #16
 8002ec0:	af00      	add	r7, sp, #0
 8002ec2:	6078      	str	r0, [r7, #4]
 8002ec4:	2300      	movs	r3, #0
 8002ec6:	60fb      	str	r3, [r7, #12]
 8002ec8:	687b      	ldr	r3, [r7, #4]
 8002eca:	681b      	ldr	r3, [r3, #0]
 8002ecc:	691b      	ldr	r3, [r3, #16]
 8002ece:	60fb      	str	r3, [r7, #12]
 8002ed0:	68fb      	ldr	r3, [r7, #12]
 8002ed2:	f423 5340 	bic.w	r3, r3, #12288	; 0x3000
 8002ed6:	60fb      	str	r3, [r7, #12]
 8002ed8:	687b      	ldr	r3, [r7, #4]
 8002eda:	68db      	ldr	r3, [r3, #12]
 8002edc:	68fa      	ldr	r2, [r7, #12]
 8002ede:	4313      	orrs	r3, r2
 8002ee0:	60fb      	str	r3, [r7, #12]
 8002ee2:	687b      	ldr	r3, [r7, #4]
 8002ee4:	681b      	ldr	r3, [r3, #0]
 8002ee6:	68fa      	ldr	r2, [r7, #12]
 8002ee8:	611a      	str	r2, [r3, #16]
 8002eea:	687b      	ldr	r3, [r7, #4]
 8002eec:	681b      	ldr	r3, [r3, #0]
 8002eee:	68db      	ldr	r3, [r3, #12]
 8002ef0:	60fb      	str	r3, [r7, #12]
 8002ef2:	68fb      	ldr	r3, [r7, #12]
 8002ef4:	f423 4316 	bic.w	r3, r3, #38400	; 0x9600
 8002ef8:	f023 030c 	bic.w	r3, r3, #12
 8002efc:	60fb      	str	r3, [r7, #12]
 8002efe:	687b      	ldr	r3, [r7, #4]
 8002f00:	689a      	ldr	r2, [r3, #8]
 8002f02:	687b      	ldr	r3, [r7, #4]
 8002f04:	691b      	ldr	r3, [r3, #16]
 8002f06:	431a      	orrs	r2, r3
 8002f08:	687b      	ldr	r3, [r7, #4]
 8002f0a:	695b      	ldr	r3, [r3, #20]
 8002f0c:	431a      	orrs	r2, r3
 8002f0e:	687b      	ldr	r3, [r7, #4]
 8002f10:	69db      	ldr	r3, [r3, #28]
 8002f12:	4313      	orrs	r3, r2
 8002f14:	68fa      	ldr	r2, [r7, #12]
 8002f16:	4313      	orrs	r3, r2
 8002f18:	60fb      	str	r3, [r7, #12]
 8002f1a:	687b      	ldr	r3, [r7, #4]
 8002f1c:	681b      	ldr	r3, [r3, #0]
 8002f1e:	68fa      	ldr	r2, [r7, #12]
 8002f20:	60da      	str	r2, [r3, #12]
 8002f22:	687b      	ldr	r3, [r7, #4]
 8002f24:	681b      	ldr	r3, [r3, #0]
 8002f26:	695b      	ldr	r3, [r3, #20]
 8002f28:	60fb      	str	r3, [r7, #12]
 8002f2a:	68fb      	ldr	r3, [r7, #12]
 8002f2c:	f423 7340 	bic.w	r3, r3, #768	; 0x300
 8002f30:	60fb      	str	r3, [r7, #12]
 8002f32:	687b      	ldr	r3, [r7, #4]
 8002f34:	699b      	ldr	r3, [r3, #24]
 8002f36:	68fa      	ldr	r2, [r7, #12]
 8002f38:	4313      	orrs	r3, r2
 8002f3a:	60fb      	str	r3, [r7, #12]
 8002f3c:	687b      	ldr	r3, [r7, #4]
 8002f3e:	681b      	ldr	r3, [r3, #0]
 8002f40:	68fa      	ldr	r2, [r7, #12]
 8002f42:	615a      	str	r2, [r3, #20]
 8002f44:	687b      	ldr	r3, [r7, #4]
 8002f46:	69db      	ldr	r3, [r3, #28]
 8002f48:	f5b3 4f00 	cmp.w	r3, #32768	; 0x8000
 8002f4c:	f040 80e4 	bne.w	8003118 <UART_SetConfig+0x25c>
 8002f50:	687b      	ldr	r3, [r7, #4]
 8002f52:	681b      	ldr	r3, [r3, #0]
 8002f54:	4aab      	ldr	r2, [pc, #684]	; (8003204 <UART_SetConfig+0x348>)
 8002f56:	4293      	cmp	r3, r2
 8002f58:	d004      	beq.n	8002f64 <UART_SetConfig+0xa8>
 8002f5a:	687b      	ldr	r3, [r7, #4]
 8002f5c:	681b      	ldr	r3, [r3, #0]
 8002f5e:	4aaa      	ldr	r2, [pc, #680]	; (8003208 <UART_SetConfig+0x34c>)
 8002f60:	4293      	cmp	r3, r2
 8002f62:	d16c      	bne.n	800303e <UART_SetConfig+0x182>
 8002f64:	f7fe ff00 	bl	8001d68 <HAL_RCC_GetPCLK2Freq>
 8002f68:	4602      	mov	r2, r0
 8002f6a:	4613      	mov	r3, r2
 8002f6c:	009b      	lsls	r3, r3, #2
 8002f6e:	4413      	add	r3, r2
 8002f70:	009a      	lsls	r2, r3, #2
 8002f72:	441a      	add	r2, r3
 8002f74:	687b      	ldr	r3, [r7, #4]
 8002f76:	685b      	ldr	r3, [r3, #4]
 8002f78:	005b      	lsls	r3, r3, #1
 8002f7a:	fbb2 f3f3 	udiv	r3, r2, r3
 8002f7e:	4aa3      	ldr	r2, [pc, #652]	; (800320c <UART_SetConfig+0x350>)
 8002f80:	fba2 2303 	umull	r2, r3, r2, r3
 8002f84:	095b      	lsrs	r3, r3, #5
 8002f86:	011c      	lsls	r4, r3, #4
 8002f88:	f7fe feee 	bl	8001d68 <HAL_RCC_GetPCLK2Freq>
 8002f8c:	4602      	mov	r2, r0
 8002f8e:	4613      	mov	r3, r2
 8002f90:	009b      	lsls	r3, r3, #2
 8002f92:	4413      	add	r3, r2
 8002f94:	009a      	lsls	r2, r3, #2
 8002f96:	441a      	add	r2, r3
 8002f98:	687b      	ldr	r3, [r7, #4]
 8002f9a:	685b      	ldr	r3, [r3, #4]
 8002f9c:	005b      	lsls	r3, r3, #1
 8002f9e:	fbb2 f5f3 	udiv	r5, r2, r3
 8002fa2:	f7fe fee1 	bl	8001d68 <HAL_RCC_GetPCLK2Freq>
 8002fa6:	4602      	mov	r2, r0
 8002fa8:	4613      	mov	r3, r2
 8002faa:	009b      	lsls	r3, r3, #2
 8002fac:	4413      	add	r3, r2
 8002fae:	009a      	lsls	r2, r3, #2
 8002fb0:	441a      	add	r2, r3
 8002fb2:	687b      	ldr	r3, [r7, #4]
 8002fb4:	685b      	ldr	r3, [r3, #4]
 8002fb6:	005b      	lsls	r3, r3, #1
 8002fb8:	fbb2 f3f3 	udiv	r3, r2, r3
 8002fbc:	4a93      	ldr	r2, [pc, #588]	; (800320c <UART_SetConfig+0x350>)
 8002fbe:	fba2 2303 	umull	r2, r3, r2, r3
 8002fc2:	095b      	lsrs	r3, r3, #5
 8002fc4:	2264      	movs	r2, #100	; 0x64
 8002fc6:	fb02 f303 	mul.w	r3, r2, r3
 8002fca:	1aeb      	subs	r3, r5, r3
 8002fcc:	00db      	lsls	r3, r3, #3
 8002fce:	3332      	adds	r3, #50	; 0x32
 8002fd0:	4a8e      	ldr	r2, [pc, #568]	; (800320c <UART_SetConfig+0x350>)
 8002fd2:	fba2 2303 	umull	r2, r3, r2, r3
 8002fd6:	095b      	lsrs	r3, r3, #5
 8002fd8:	005b      	lsls	r3, r3, #1
 8002fda:	f403 73f8 	and.w	r3, r3, #496	; 0x1f0
 8002fde:	441c      	add	r4, r3
 8002fe0:	f7fe fec2 	bl	8001d68 <HAL_RCC_GetPCLK2Freq>
 8002fe4:	4602      	mov	r2, r0
 8002fe6:	4613      	mov	r3, r2
 8002fe8:	009b      	lsls	r3, r3, #2
 8002fea:	4413      	add	r3, r2
 8002fec:	009a      	lsls	r2, r3, #2
 8002fee:	441a      	add	r2, r3
 8002ff0:	687b      	ldr	r3, [r7, #4]
 8002ff2:	685b      	ldr	r3, [r3, #4]
 8002ff4:	005b      	lsls	r3, r3, #1
 8002ff6:	fbb2 f5f3 	udiv	r5, r2, r3
 8002ffa:	f7fe feb5 	bl	8001d68 <HAL_RCC_GetPCLK2Freq>
 8002ffe:	4602      	mov	r2, r0
 8003000:	4613      	mov	r3, r2
 8003002:	009b      	lsls	r3, r3, #2
 8003004:	4413      	add	r3, r2
 8003006:	009a      	lsls	r2, r3, #2
 8003008:	441a      	add	r2, r3
 800300a:	687b      	ldr	r3, [r7, #4]
 800300c:	685b      	ldr	r3, [r3, #4]
 800300e:	005b      	lsls	r3, r3, #1
 8003010:	fbb2 f3f3 	udiv	r3, r2, r3
 8003014:	4a7d      	ldr	r2, [pc, #500]	; (800320c <UART_SetConfig+0x350>)
 8003016:	fba2 2303 	umull	r2, r3, r2, r3
 800301a:	095b      	lsrs	r3, r3, #5
 800301c:	2264      	movs	r2, #100	; 0x64
 800301e:	fb02 f303 	mul.w	r3, r2, r3
 8003022:	1aeb      	subs	r3, r5, r3
 8003024:	00db      	lsls	r3, r3, #3
 8003026:	3332      	adds	r3, #50	; 0x32
 8003028:	4a78      	ldr	r2, [pc, #480]	; (800320c <UART_SetConfig+0x350>)
 800302a:	fba2 2303 	umull	r2, r3, r2, r3
 800302e:	095b      	lsrs	r3, r3, #5
 8003030:	f003 0207 	and.w	r2, r3, #7
 8003034:	687b      	ldr	r3, [r7, #4]
 8003036:	681b      	ldr	r3, [r3, #0]
 8003038:	4422      	add	r2, r4
 800303a:	609a      	str	r2, [r3, #8]
 800303c:	e154      	b.n	80032e8 <UART_SetConfig+0x42c>
 800303e:	f7fe fe7f 	bl	8001d40 <HAL_RCC_GetPCLK1Freq>
 8003042:	4602      	mov	r2, r0
 8003044:	4613      	mov	r3, r2
 8003046:	009b      	lsls	r3, r3, #2
 8003048:	4413      	add	r3, r2
 800304a:	009a      	lsls	r2, r3, #2
 800304c:	441a      	add	r2, r3
 800304e:	687b      	ldr	r3, [r7, #4]
 8003050:	685b      	ldr	r3, [r3, #4]
 8003052:	005b      	lsls	r3, r3, #1
 8003054:	fbb2 f3f3 	udiv	r3, r2, r3
 8003058:	4a6c      	ldr	r2, [pc, #432]	; (800320c <UART_SetConfig+0x350>)
 800305a:	fba2 2303 	umull	r2, r3, r2, r3
 800305e:	095b      	lsrs	r3, r3, #5
 8003060:	011c      	lsls	r4, r3, #4
 8003062:	f7fe fe6d 	bl	8001d40 <HAL_RCC_GetPCLK1Freq>
 8003066:	4602      	mov	r2, r0
 8003068:	4613      	mov	r3, r2
 800306a:	009b      	lsls	r3, r3, #2
 800306c:	4413      	add	r3, r2
 800306e:	009a      	lsls	r2, r3, #2
 8003070:	441a      	add	r2, r3
 8003072:	687b      	ldr	r3, [r7, #4]
 8003074:	685b      	ldr	r3, [r3, #4]
 8003076:	005b      	lsls	r3, r3, #1
 8003078:	fbb2 f5f3 	udiv	r5, r2, r3
 800307c:	f7fe fe60 	bl	8001d40 <HAL_RCC_GetPCLK1Freq>
 8003080:	4602      	mov	r2, r0
 8003082:	4613      	mov	r3, r2
 8003084:	009b      	lsls	r3, r3, #2
 8003086:	4413      	add	r3, r2
 8003088:	009a      	lsls	r2, r3, #2
 800308a:	441a      	add	r2, r3
 800308c:	687b      	ldr	r3, [r7, #4]
 800308e:	685b      	ldr	r3, [r3, #4]
 8003090:	005b      	lsls	r3, r3, #1
 8003092:	fbb2 f3f3 	udiv	r3, r2, r3
 8003096:	4a5d      	ldr	r2, [pc, #372]	; (800320c <UART_SetConfig+0x350>)
 8003098:	fba2 2303 	umull	r2, r3, r2, r3
 800309c:	095b      	lsrs	r3, r3, #5
 800309e:	2264      	movs	r2, #100	; 0x64
 80030a0:	fb02 f303 	mul.w	r3, r2, r3
 80030a4:	1aeb      	subs	r3, r5, r3
 80030a6:	00db      	lsls	r3, r3, #3
 80030a8:	3332      	adds	r3, #50	; 0x32
 80030aa:	4a58      	ldr	r2, [pc, #352]	; (800320c <UART_SetConfig+0x350>)
 80030ac:	fba2 2303 	umull	r2, r3, r2, r3
 80030b0:	095b      	lsrs	r3, r3, #5
 80030b2:	005b      	lsls	r3, r3, #1
 80030b4:	f403 73f8 	and.w	r3, r3, #496	; 0x1f0
 80030b8:	441c      	add	r4, r3
 80030ba:	f7fe fe41 	bl	8001d40 <HAL_RCC_GetPCLK1Freq>
 80030be:	4602      	mov	r2, r0
 80030c0:	4613      	mov	r3, r2
 80030c2:	009b      	lsls	r3, r3, #2
 80030c4:	4413      	add	r3, r2
 80030c6:	009a      	lsls	r2, r3, #2
 80030c8:	441a      	add	r2, r3
 80030ca:	687b      	ldr	r3, [r7, #4]
 80030cc:	685b      	ldr	r3, [r3, #4]
 80030ce:	005b      	lsls	r3, r3, #1
 80030d0:	fbb2 f5f3 	udiv	r5, r2, r3
 80030d4:	f7fe fe34 	bl	8001d40 <HAL_RCC_GetPCLK1Freq>
 80030d8:	4602      	mov	r2, r0
 80030da:	4613      	mov	r3, r2
 80030dc:	009b      	lsls	r3, r3, #2
 80030de:	4413      	add	r3, r2
 80030e0:	009a      	lsls	r2, r3, #2
 80030e2:	441a      	add	r2, r3
 80030e4:	687b      	ldr	r3, [r7, #4]
 80030e6:	685b      	ldr	r3, [r3, #4]
 80030e8:	005b      	lsls	r3, r3, #1
 80030ea:	fbb2 f3f3 	udiv	r3, r2, r3
 80030ee:	4a47      	ldr	r2, [pc, #284]	; (800320c <UART_SetConfig+0x350>)
 80030f0:	fba2 2303 	umull	r2, r3, r2, r3
 80030f4:	095b      	lsrs	r3, r3, #5
 80030f6:	2264      	movs	r2, #100	; 0x64
 80030f8:	fb02 f303 	mul.w	r3, r2, r3
 80030fc:	1aeb      	subs	r3, r5, r3
 80030fe:	00db      	lsls	r3, r3, #3
 8003100:	3332      	adds	r3, #50	; 0x32
 8003102:	4a42      	ldr	r2, [pc, #264]	; (800320c <UART_SetConfig+0x350>)
 8003104:	fba2 2303 	umull	r2, r3, r2, r3
 8003108:	095b      	lsrs	r3, r3, #5
 800310a:	f003 0207 	and.w	r2, r3, #7
 800310e:	687b      	ldr	r3, [r7, #4]
 8003110:	681b      	ldr	r3, [r3, #0]
 8003112:	4422      	add	r2, r4
 8003114:	609a      	str	r2, [r3, #8]
 8003116:	e0e7      	b.n	80032e8 <UART_SetConfig+0x42c>
 8003118:	687b      	ldr	r3, [r7, #4]
 800311a:	681b      	ldr	r3, [r3, #0]
 800311c:	4a39      	ldr	r2, [pc, #228]	; (8003204 <UART_SetConfig+0x348>)
 800311e:	4293      	cmp	r3, r2
 8003120:	d004      	beq.n	800312c <UART_SetConfig+0x270>
 8003122:	687b      	ldr	r3, [r7, #4]
 8003124:	681b      	ldr	r3, [r3, #0]
 8003126:	4a38      	ldr	r2, [pc, #224]	; (8003208 <UART_SetConfig+0x34c>)
 8003128:	4293      	cmp	r3, r2
 800312a:	d171      	bne.n	8003210 <UART_SetConfig+0x354>
 800312c:	f7fe fe1c 	bl	8001d68 <HAL_RCC_GetPCLK2Freq>
 8003130:	4602      	mov	r2, r0
 8003132:	4613      	mov	r3, r2
 8003134:	009b      	lsls	r3, r3, #2
 8003136:	4413      	add	r3, r2
 8003138:	009a      	lsls	r2, r3, #2
 800313a:	441a      	add	r2, r3
 800313c:	687b      	ldr	r3, [r7, #4]
 800313e:	685b      	ldr	r3, [r3, #4]
 8003140:	009b      	lsls	r3, r3, #2
 8003142:	fbb2 f3f3 	udiv	r3, r2, r3
 8003146:	4a31      	ldr	r2, [pc, #196]	; (800320c <UART_SetConfig+0x350>)
 8003148:	fba2 2303 	umull	r2, r3, r2, r3
 800314c:	095b      	lsrs	r3, r3, #5
 800314e:	011c      	lsls	r4, r3, #4
 8003150:	f7fe fe0a 	bl	8001d68 <HAL_RCC_GetPCLK2Freq>
 8003154:	4602      	mov	r2, r0
 8003156:	4613      	mov	r3, r2
 8003158:	009b      	lsls	r3, r3, #2
 800315a:	4413      	add	r3, r2
 800315c:	009a      	lsls	r2, r3, #2
 800315e:	441a      	add	r2, r3
 8003160:	687b      	ldr	r3, [r7, #4]
 8003162:	685b      	ldr	r3, [r3, #4]
 8003164:	009b      	lsls	r3, r3, #2
 8003166:	fbb2 f5f3 	udiv	r5, r2, r3
 800316a:	f7fe fdfd 	bl	8001d68 <HAL_RCC_GetPCLK2Freq>
 800316e:	4602      	mov	r2, r0
 8003170:	4613      	mov	r3, r2
 8003172:	009b      	lsls	r3, r3, #2
 8003174:	4413      	add	r3, r2
 8003176:	009a      	lsls	r2, r3, #2
 8003178:	441a      	add	r2, r3
 800317a:	687b      	ldr	r3, [r7, #4]
 800317c:	685b      	ldr	r3, [r3, #4]
 800317e:	009b      	lsls	r3, r3, #2
 8003180:	fbb2 f3f3 	udiv	r3, r2, r3
 8003184:	4a21      	ldr	r2, [pc, #132]	; (800320c <UART_SetConfig+0x350>)
 8003186:	fba2 2303 	umull	r2, r3, r2, r3
 800318a:	095b      	lsrs	r3, r3, #5
 800318c:	2264      	movs	r2, #100	; 0x64
 800318e:	fb02 f303 	mul.w	r3, r2, r3
 8003192:	1aeb      	subs	r3, r5, r3
 8003194:	011b      	lsls	r3, r3, #4
 8003196:	3332      	adds	r3, #50	; 0x32
 8003198:	4a1c      	ldr	r2, [pc, #112]	; (800320c <UART_SetConfig+0x350>)
 800319a:	fba2 2303 	umull	r2, r3, r2, r3
 800319e:	095b      	lsrs	r3, r3, #5
 80031a0:	f003 03f0 	and.w	r3, r3, #240	; 0xf0
 80031a4:	441c      	add	r4, r3
 80031a6:	f7fe fddf 	bl	8001d68 <HAL_RCC_GetPCLK2Freq>
 80031aa:	4602      	mov	r2, r0
 80031ac:	4613      	mov	r3, r2
 80031ae:	009b      	lsls	r3, r3, #2
 80031b0:	4413      	add	r3, r2
 80031b2:	009a      	lsls	r2, r3, #2
 80031b4:	441a      	add	r2, r3
 80031b6:	687b      	ldr	r3, [r7, #4]
 80031b8:	685b      	ldr	r3, [r3, #4]
 80031ba:	009b      	lsls	r3, r3, #2
 80031bc:	fbb2 f5f3 	udiv	r5, r2, r3
 80031c0:	f7fe fdd2 	bl	8001d68 <HAL_RCC_GetPCLK2Freq>
 80031c4:	4602      	mov	r2, r0
 80031c6:	4613      	mov	r3, r2
 80031c8:	009b      	lsls	r3, r3, #2
 80031ca:	4413      	add	r3, r2
 80031cc:	009a      	lsls	r2, r3, #2
 80031ce:	441a      	add	r2, r3
 80031d0:	687b      	ldr	r3, [r7, #4]
 80031d2:	685b      	ldr	r3, [r3, #4]
 80031d4:	009b      	lsls	r3, r3, #2
 80031d6:	fbb2 f3f3 	udiv	r3, r2, r3
 80031da:	4a0c      	ldr	r2, [pc, #48]	; (800320c <UART_SetConfig+0x350>)
 80031dc:	fba2 2303 	umull	r2, r3, r2, r3
 80031e0:	095b      	lsrs	r3, r3, #5
 80031e2:	2264      	movs	r2, #100	; 0x64
 80031e4:	fb02 f303 	mul.w	r3, r2, r3
 80031e8:	1aeb      	subs	r3, r5, r3
 80031ea:	011b      	lsls	r3, r3, #4
 80031ec:	3332      	adds	r3, #50	; 0x32
 80031ee:	4a07      	ldr	r2, [pc, #28]	; (800320c <UART_SetConfig+0x350>)
 80031f0:	fba2 2303 	umull	r2, r3, r2, r3
 80031f4:	095b      	lsrs	r3, r3, #5
 80031f6:	f003 020f 	and.w	r2, r3, #15
 80031fa:	687b      	ldr	r3, [r7, #4]
 80031fc:	681b      	ldr	r3, [r3, #0]
 80031fe:	4422      	add	r2, r4
 8003200:	609a      	str	r2, [r3, #8]
 8003202:	e071      	b.n	80032e8 <UART_SetConfig+0x42c>
 8003204:	40011000 	.word	0x40011000
 8003208:	40011400 	.word	0x40011400
 800320c:	51eb851f 	.word	0x51eb851f
 8003210:	f7fe fd96 	bl	8001d40 <HAL_RCC_GetPCLK1Freq>
 8003214:	4602      	mov	r2, r0
 8003216:	4613      	mov	r3, r2
 8003218:	009b      	lsls	r3, r3, #2
 800321a:	4413      	add	r3, r2
 800321c:	009a      	lsls	r2, r3, #2
 800321e:	441a      	add	r2, r3
 8003220:	687b      	ldr	r3, [r7, #4]
 8003222:	685b      	ldr	r3, [r3, #4]
 8003224:	009b      	lsls	r3, r3, #2
 8003226:	fbb2 f3f3 	udiv	r3, r2, r3
 800322a:	4a31      	ldr	r2, [pc, #196]	; (80032f0 <UART_SetConfig+0x434>)
 800322c:	fba2 2303 	umull	r2, r3, r2, r3
 8003230:	095b      	lsrs	r3, r3, #5
 8003232:	011c      	lsls	r4, r3, #4
 8003234:	f7fe fd84 	bl	8001d40 <HAL_RCC_GetPCLK1Freq>
 8003238:	4602      	mov	r2, r0
 800323a:	4613      	mov	r3, r2
 800323c:	009b      	lsls	r3, r3, #2
 800323e:	4413      	add	r3, r2
 8003240:	009a      	lsls	r2, r3, #2
 8003242:	441a      	add	r2, r3
 8003244:	687b      	ldr	r3, [r7, #4]
 8003246:	685b      	ldr	r3, [r3, #4]
 8003248:	009b      	lsls	r3, r3, #2
 800324a:	fbb2 f5f3 	udiv	r5, r2, r3
 800324e:	f7fe fd77 	bl	8001d40 <HAL_RCC_GetPCLK1Freq>
 8003252:	4602      	mov	r2, r0
 8003254:	4613      	mov	r3, r2
 8003256:	009b      	lsls	r3, r3, #2
 8003258:	4413      	add	r3, r2
 800325a:	009a      	lsls	r2, r3, #2
 800325c:	441a      	add	r2, r3
 800325e:	687b      	ldr	r3, [r7, #4]
 8003260:	685b      	ldr	r3, [r3, #4]
 8003262:	009b      	lsls	r3, r3, #2
 8003264:	fbb2 f3f3 	udiv	r3, r2, r3
 8003268:	4a21      	ldr	r2, [pc, #132]	; (80032f0 <UART_SetConfig+0x434>)
 800326a:	fba2 2303 	umull	r2, r3, r2, r3
 800326e:	095b      	lsrs	r3, r3, #5
 8003270:	2264      	movs	r2, #100	; 0x64
 8003272:	fb02 f303 	mul.w	r3, r2, r3
 8003276:	1aeb      	subs	r3, r5, r3
 8003278:	011b      	lsls	r3, r3, #4
 800327a:	3332      	adds	r3, #50	; 0x32
 800327c:	4a1c      	ldr	r2, [pc, #112]	; (80032f0 <UART_SetConfig+0x434>)
 800327e:	fba2 2303 	umull	r2, r3, r2, r3
 8003282:	095b      	lsrs	r3, r3, #5
 8003284:	f003 03f0 	and.w	r3, r3, #240	; 0xf0
 8003288:	441c      	add	r4, r3
 800328a:	f7fe fd59 	bl	8001d40 <HAL_RCC_GetPCLK1Freq>
 800328e:	4602      	mov	r2, r0
 8003290:	4613      	mov	r3, r2
 8003292:	009b      	lsls	r3, r3, #2
 8003294:	4413      	add	r3, r2
 8003296:	009a      	lsls	r2, r3, #2
 8003298:	441a      	add	r2, r3
 800329a:	687b      	ldr	r3, [r7, #4]
 800329c:	685b      	ldr	r3, [r3, #4]
 800329e:	009b      	lsls	r3, r3, #2
 80032a0:	fbb2 f5f3 	udiv	r5, r2, r3
 80032a4:	f7fe fd4c 	bl	8001d40 <HAL_RCC_GetPCLK1Freq>
 80032a8:	4602      	mov	r2, r0
 80032aa:	4613      	mov	r3, r2
 80032ac:	009b      	lsls	r3, r3, #2
 80032ae:	4413      	add	r3, r2
 80032b0:	009a      	lsls	r2, r3, #2
 80032b2:	441a      	add	r2, r3
 80032b4:	687b      	ldr	r3, [r7, #4]
 80032b6:	685b      	ldr	r3, [r3, #4]
 80032b8:	009b      	lsls	r3, r3, #2
 80032ba:	fbb2 f3f3 	udiv	r3, r2, r3
 80032be:	4a0c      	ldr	r2, [pc, #48]	; (80032f0 <UART_SetConfig+0x434>)
 80032c0:	fba2 2303 	umull	r2, r3, r2, r3
 80032c4:	095b      	lsrs	r3, r3, #5
 80032c6:	2264      	movs	r2, #100	; 0x64
 80032c8:	fb02 f303 	mul.w	r3, r2, r3
 80032cc:	1aeb      	subs	r3, r5, r3
 80032ce:	011b      	lsls	r3, r3, #4
 80032d0:	3332      	adds	r3, #50	; 0x32
 80032d2:	4a07      	ldr	r2, [pc, #28]	; (80032f0 <UART_SetConfig+0x434>)
 80032d4:	fba2 2303 	umull	r2, r3, r2, r3
 80032d8:	095b      	lsrs	r3, r3, #5
 80032da:	f003 020f 	and.w	r2, r3, #15
 80032de:	687b      	ldr	r3, [r7, #4]
 80032e0:	681b      	ldr	r3, [r3, #0]
 80032e2:	4422      	add	r2, r4
 80032e4:	609a      	str	r2, [r3, #8]
 80032e6:	e7ff      	b.n	80032e8 <UART_SetConfig+0x42c>
 80032e8:	bf00      	nop
 80032ea:	3710      	adds	r7, #16
 80032ec:	46bd      	mov	sp, r7
 80032ee:	bdb0      	pop	{r4, r5, r7, pc}
 80032f0:	51eb851f 	.word	0x51eb851f

080032f4 <send_string>:
I2C_HandleTypeDef hi2c1;
TIM_HandleTypeDef htim1;
GPIO_InitTypeDef gpio;

void send_string(char* s)
{
 80032f4:	b580      	push	{r7, lr}
 80032f6:	b082      	sub	sp, #8
 80032f8:	af00      	add	r7, sp, #0
 80032fa:	6078      	str	r0, [r7, #4]
	HAL_UART_Transmit(&uart, (uint8_t*)s, strlen(s), 1000);
 80032fc:	6878      	ldr	r0, [r7, #4]
 80032fe:	f7fc ff63 	bl	80001c8 <strlen>
 8003302:	4603      	mov	r3, r0
 8003304:	b29a      	uxth	r2, r3
 8003306:	f44f 737a 	mov.w	r3, #1000	; 0x3e8
 800330a:	6879      	ldr	r1, [r7, #4]
 800330c:	4803      	ldr	r0, [pc, #12]	; (800331c <send_string+0x28>)
 800330e:	f7ff fcf1 	bl	8002cf4 <HAL_UART_Transmit>
}
 8003312:	bf00      	nop
 8003314:	3708      	adds	r7, #8
 8003316:	46bd      	mov	sp, r7
 8003318:	bd80      	pop	{r7, pc}
 800331a:	bf00      	nop
 800331c:	20000548 	.word	0x20000548

08003320 <hardware_init>:
}

void SystemClock_Config(void);
//void HAL_TIM_MspPostInit(TIM_HandleTypeDef *htim);

void hardware_init(){
 8003320:	b580      	push	{r7, lr}
 8003322:	af00      	add	r7, sp, #0

	gpio.Mode = GPIO_MODE_AF_PP;
 8003324:	4b36      	ldr	r3, [pc, #216]	; (8003400 <hardware_init+0xe0>)
 8003326:	2202      	movs	r2, #2
 8003328:	605a      	str	r2, [r3, #4]
	gpio.Pin = GPIO_PIN_2;
 800332a:	4b35      	ldr	r3, [pc, #212]	; (8003400 <hardware_init+0xe0>)
 800332c:	2204      	movs	r2, #4
 800332e:	601a      	str	r2, [r3, #0]
	gpio.Alternate = GPIO_AF7_USART2;
 8003330:	4b33      	ldr	r3, [pc, #204]	; (8003400 <hardware_init+0xe0>)
 8003332:	2207      	movs	r2, #7
 8003334:	611a      	str	r2, [r3, #16]
	gpio.Pull = GPIO_NOPULL;
 8003336:	4b32      	ldr	r3, [pc, #200]	; (8003400 <hardware_init+0xe0>)
 8003338:	2200      	movs	r2, #0
 800333a:	609a      	str	r2, [r3, #8]
	gpio.Speed = GPIO_SPEED_FREQ_LOW;
 800333c:	4b30      	ldr	r3, [pc, #192]	; (8003400 <hardware_init+0xe0>)
 800333e:	2200      	movs	r2, #0
 8003340:	60da      	str	r2, [r3, #12]
	HAL_GPIO_Init(GPIOA, &gpio);
 8003342:	492f      	ldr	r1, [pc, #188]	; (8003400 <hardware_init+0xe0>)
 8003344:	482f      	ldr	r0, [pc, #188]	; (8003404 <hardware_init+0xe4>)
 8003346:	f7fd fa47 	bl	80007d8 <HAL_GPIO_Init>

	gpio.Mode = GPIO_MODE_AF_OD;
 800334a:	4b2d      	ldr	r3, [pc, #180]	; (8003400 <hardware_init+0xe0>)
 800334c:	2212      	movs	r2, #18
 800334e:	605a      	str	r2, [r3, #4]
	gpio.Pin = GPIO_PIN_3;
 8003350:	4b2b      	ldr	r3, [pc, #172]	; (8003400 <hardware_init+0xe0>)
 8003352:	2208      	movs	r2, #8
 8003354:	601a      	str	r2, [r3, #0]
	HAL_GPIO_Init(GPIOA, &gpio);
 8003356:	492a      	ldr	r1, [pc, #168]	; (8003400 <hardware_init+0xe0>)
 8003358:	482a      	ldr	r0, [pc, #168]	; (8003404 <hardware_init+0xe4>)
 800335a:	f7fd fa3d 	bl	80007d8 <HAL_GPIO_Init>

	gpio.Pin = GPIO_PIN_8 |GPIO_PIN_9;
 800335e:	4b28      	ldr	r3, [pc, #160]	; (8003400 <hardware_init+0xe0>)
 8003360:	f44f 7240 	mov.w	r2, #768	; 0x300
 8003364:	601a      	str	r2, [r3, #0]
	gpio.Mode = GPIO_MODE_AF_OD;
 8003366:	4b26      	ldr	r3, [pc, #152]	; (8003400 <hardware_init+0xe0>)
 8003368:	2212      	movs	r2, #18
 800336a:	605a      	str	r2, [r3, #4]
	gpio.Pull = GPIO_NOPULL;
 800336c:	4b24      	ldr	r3, [pc, #144]	; (8003400 <hardware_init+0xe0>)
 800336e:	2200      	movs	r2, #0
 8003370:	609a      	str	r2, [r3, #8]
	gpio.Speed = GPIO_SPEED_FREQ_HIGH;
 8003372:	4b23      	ldr	r3, [pc, #140]	; (8003400 <hardware_init+0xe0>)
 8003374:	2202      	movs	r2, #2
 8003376:	60da      	str	r2, [r3, #12]
	gpio.Alternate = GPIO_AF4_I2C1;
 8003378:	4b21      	ldr	r3, [pc, #132]	; (8003400 <hardware_init+0xe0>)
 800337a:	2204      	movs	r2, #4
 800337c:	611a      	str	r2, [r3, #16]
	HAL_GPIO_Init(GPIOB, &gpio);
 800337e:	4920      	ldr	r1, [pc, #128]	; (8003400 <hardware_init+0xe0>)
 8003380:	4821      	ldr	r0, [pc, #132]	; (8003408 <hardware_init+0xe8>)
 8003382:	f7fd fa29 	bl	80007d8 <HAL_GPIO_Init>

	uart.Instance = USART2;
 8003386:	4b21      	ldr	r3, [pc, #132]	; (800340c <hardware_init+0xec>)
 8003388:	4a21      	ldr	r2, [pc, #132]	; (8003410 <hardware_init+0xf0>)
 800338a:	601a      	str	r2, [r3, #0]
	uart.Init.BaudRate = 115200;
 800338c:	4b1f      	ldr	r3, [pc, #124]	; (800340c <hardware_init+0xec>)
 800338e:	f44f 32e1 	mov.w	r2, #115200	; 0x1c200
 8003392:	605a      	str	r2, [r3, #4]
	uart.Init.WordLength = UART_WORDLENGTH_8B;
 8003394:	4b1d      	ldr	r3, [pc, #116]	; (800340c <hardware_init+0xec>)
 8003396:	2200      	movs	r2, #0
 8003398:	609a      	str	r2, [r3, #8]
	uart.Init.Parity = UART_PARITY_NONE;
 800339a:	4b1c      	ldr	r3, [pc, #112]	; (800340c <hardware_init+0xec>)
 800339c:	2200      	movs	r2, #0
 800339e:	611a      	str	r2, [r3, #16]
	uart.Init.StopBits = UART_STOPBITS_1;
 80033a0:	4b1a      	ldr	r3, [pc, #104]	; (800340c <hardware_init+0xec>)
 80033a2:	2200      	movs	r2, #0
 80033a4:	60da      	str	r2, [r3, #12]
	uart.Init.HwFlowCtl = UART_HWCONTROL_NONE;
 80033a6:	4b19      	ldr	r3, [pc, #100]	; (800340c <hardware_init+0xec>)
 80033a8:	2200      	movs	r2, #0
 80033aa:	619a      	str	r2, [r3, #24]
	uart.Init.OverSampling = UART_OVERSAMPLING_16;
 80033ac:	4b17      	ldr	r3, [pc, #92]	; (800340c <hardware_init+0xec>)
 80033ae:	2200      	movs	r2, #0
 80033b0:	61da      	str	r2, [r3, #28]
	uart.Init.Mode = UART_MODE_TX_RX;
 80033b2:	4b16      	ldr	r3, [pc, #88]	; (800340c <hardware_init+0xec>)
 80033b4:	220c      	movs	r2, #12
 80033b6:	615a      	str	r2, [r3, #20]
	HAL_UART_Init(&uart);
 80033b8:	4814      	ldr	r0, [pc, #80]	; (800340c <hardware_init+0xec>)
 80033ba:	f7ff fc44 	bl	8002c46 <HAL_UART_Init>

	hi2c1.Instance = I2C1;
 80033be:	4b15      	ldr	r3, [pc, #84]	; (8003414 <hardware_init+0xf4>)
 80033c0:	4a15      	ldr	r2, [pc, #84]	; (8003418 <hardware_init+0xf8>)
 80033c2:	601a      	str	r2, [r3, #0]
	hi2c1.Init.ClockSpeed = 400000;
 80033c4:	4b13      	ldr	r3, [pc, #76]	; (8003414 <hardware_init+0xf4>)
 80033c6:	4a15      	ldr	r2, [pc, #84]	; (800341c <hardware_init+0xfc>)
 80033c8:	605a      	str	r2, [r3, #4]
	hi2c1.Init.DutyCycle = I2C_DUTYCYCLE_2;
 80033ca:	4b12      	ldr	r3, [pc, #72]	; (8003414 <hardware_init+0xf4>)
 80033cc:	2200      	movs	r2, #0
 80033ce:	609a      	str	r2, [r3, #8]
	hi2c1.Init.OwnAddress1 = 0;
 80033d0:	4b10      	ldr	r3, [pc, #64]	; (8003414 <hardware_init+0xf4>)
 80033d2:	2200      	movs	r2, #0
 80033d4:	60da      	str	r2, [r3, #12]
	hi2c1.Init.AddressingMode = I2C_ADDRESSINGMODE_7BIT;
 80033d6:	4b0f      	ldr	r3, [pc, #60]	; (8003414 <hardware_init+0xf4>)
 80033d8:	f44f 4280 	mov.w	r2, #16384	; 0x4000
 80033dc:	611a      	str	r2, [r3, #16]
	hi2c1.Init.DualAddressMode = I2C_DUALADDRESS_DISABLE;
 80033de:	4b0d      	ldr	r3, [pc, #52]	; (8003414 <hardware_init+0xf4>)
 80033e0:	2200      	movs	r2, #0
 80033e2:	615a      	str	r2, [r3, #20]
	hi2c1.Init.OwnAddress2 = 0;
 80033e4:	4b0b      	ldr	r3, [pc, #44]	; (8003414 <hardware_init+0xf4>)
 80033e6:	2200      	movs	r2, #0
 80033e8:	619a      	str	r2, [r3, #24]
	hi2c1.Init.GeneralCallMode = I2C_GENERALCALL_DISABLE;
 80033ea:	4b0a      	ldr	r3, [pc, #40]	; (8003414 <hardware_init+0xf4>)
 80033ec:	2200      	movs	r2, #0
 80033ee:	61da      	str	r2, [r3, #28]
	hi2c1.Init.NoStretchMode = I2C_NOSTRETCH_DISABLE;
 80033f0:	4b08      	ldr	r3, [pc, #32]	; (8003414 <hardware_init+0xf4>)
 80033f2:	2200      	movs	r2, #0
 80033f4:	621a      	str	r2, [r3, #32]
	HAL_I2C_Init(&hi2c1);
 80033f6:	4807      	ldr	r0, [pc, #28]	; (8003414 <hardware_init+0xf4>)
 80033f8:	f7fd fb88 	bl	8000b0c <HAL_I2C_Init>


}
 80033fc:	bf00      	nop
 80033fe:	bd80      	pop	{r7, pc}
 8003400:	20000534 	.word	0x20000534
 8003404:	40020000 	.word	0x40020000
 8003408:	40020400 	.word	0x40020400
 800340c:	20000548 	.word	0x20000548
 8003410:	40004400 	.word	0x40004400
 8003414:	200004a4 	.word	0x200004a4
 8003418:	40005400 	.word	0x40005400
 800341c:	00061a80 	.word	0x00061a80

08003420 <HAL_TIM_MspPostInit>:

void HAL_TIM_MspPostInit(TIM_HandleTypeDef* timHandle)
{
 8003420:	b580      	push	{r7, lr}
 8003422:	b088      	sub	sp, #32
 8003424:	af00      	add	r7, sp, #0
 8003426:	6078      	str	r0, [r7, #4]

  GPIO_InitTypeDef GPIO_InitStruct;
  if(timHandle->Instance==TIM1)
 8003428:	687b      	ldr	r3, [r7, #4]
 800342a:	681b      	ldr	r3, [r3, #0]
 800342c:	4a09      	ldr	r2, [pc, #36]	; (8003454 <HAL_TIM_MspPostInit+0x34>)
 800342e:	4293      	cmp	r3, r2
 8003430:	d10b      	bne.n	800344a <HAL_TIM_MspPostInit+0x2a>
  {
		GPIO_InitStruct.Pin =  GPIO_PIN_5;
 8003432:	2320      	movs	r3, #32
 8003434:	60fb      	str	r3, [r7, #12]
		GPIO_InitStruct.Mode = GPIO_MODE_OUTPUT_PP;
 8003436:	2301      	movs	r3, #1
 8003438:	613b      	str	r3, [r7, #16]
		GPIO_InitStruct.Pull = GPIO_NOPULL;
 800343a:	2300      	movs	r3, #0
 800343c:	617b      	str	r3, [r7, #20]
		HAL_GPIO_Init(GPIOA,&GPIO_InitStruct);
 800343e:	f107 030c 	add.w	r3, r7, #12
 8003442:	4619      	mov	r1, r3
 8003444:	4804      	ldr	r0, [pc, #16]	; (8003458 <HAL_TIM_MspPostInit+0x38>)
 8003446:	f7fd f9c7 	bl	80007d8 <HAL_GPIO_Init>

  }

}
 800344a:	bf00      	nop
 800344c:	3720      	adds	r7, #32
 800344e:	46bd      	mov	sp, r7
 8003450:	bd80      	pop	{r7, pc}
 8003452:	bf00      	nop
 8003454:	40010000 	.word	0x40010000
 8003458:	40020000 	.word	0x40020000

0800345c <TIM1_Init>:

void TIM1_Init(){
 800345c:	b580      	push	{r7, lr}
 800345e:	b094      	sub	sp, #80	; 0x50
 8003460:	af00      	add	r7, sp, #0
	  TIM_ClockConfigTypeDef sClockSourceConfig;
	  TIM_MasterConfigTypeDef sMasterConfig;
	  TIM_OC_InitTypeDef sConfigOC;
	  TIM_BreakDeadTimeConfigTypeDef sBreakDeadTimeConfig;

	  htim1.Instance = TIM1;
 8003462:	4b4d      	ldr	r3, [pc, #308]	; (8003598 <TIM1_Init+0x13c>)
 8003464:	4a4d      	ldr	r2, [pc, #308]	; (800359c <TIM1_Init+0x140>)
 8003466:	601a      	str	r2, [r3, #0]
	  htim1.Init.Prescaler = 999;
 8003468:	4b4b      	ldr	r3, [pc, #300]	; (8003598 <TIM1_Init+0x13c>)
 800346a:	f240 32e7 	movw	r2, #999	; 0x3e7
 800346e:	605a      	str	r2, [r3, #4]
	  htim1.Init.CounterMode = TIM_COUNTERMODE_UP;
 8003470:	4b49      	ldr	r3, [pc, #292]	; (8003598 <TIM1_Init+0x13c>)
 8003472:	2200      	movs	r2, #0
 8003474:	609a      	str	r2, [r3, #8]
	  htim1.Init.Period = 4096;
 8003476:	4b48      	ldr	r3, [pc, #288]	; (8003598 <TIM1_Init+0x13c>)
 8003478:	f44f 5280 	mov.w	r2, #4096	; 0x1000
 800347c:	60da      	str	r2, [r3, #12]
	  htim1.Init.ClockDivision = TIM_CLOCKDIVISION_DIV1;
 800347e:	4b46      	ldr	r3, [pc, #280]	; (8003598 <TIM1_Init+0x13c>)
 8003480:	2200      	movs	r2, #0
 8003482:	611a      	str	r2, [r3, #16]
	  htim1.Init.RepetitionCounter = 0;
 8003484:	4b44      	ldr	r3, [pc, #272]	; (8003598 <TIM1_Init+0x13c>)
 8003486:	2200      	movs	r2, #0
 8003488:	615a      	str	r2, [r3, #20]
	  if (HAL_TIM_Base_Init(&htim1) != HAL_OK)
 800348a:	4843      	ldr	r0, [pc, #268]	; (8003598 <TIM1_Init+0x13c>)
 800348c:	f7fe fd62 	bl	8001f54 <HAL_TIM_Base_Init>
 8003490:	4603      	mov	r3, r0
 8003492:	2b00      	cmp	r3, #0
 8003494:	d001      	beq.n	800349a <TIM1_Init+0x3e>
	  {
	    Error_Handler();
 8003496:	f000 fa47 	bl	8003928 <Error_Handler>
	  }

	  sClockSourceConfig.ClockSource = TIM_CLOCKSOURCE_INTERNAL;
 800349a:	f44f 5380 	mov.w	r3, #4096	; 0x1000
 800349e:	643b      	str	r3, [r7, #64]	; 0x40
	    if (HAL_TIM_ConfigClockSource(&htim1, &sClockSourceConfig) != HAL_OK)
 80034a0:	f107 0340 	add.w	r3, r7, #64	; 0x40
 80034a4:	4619      	mov	r1, r3
 80034a6:	483c      	ldr	r0, [pc, #240]	; (8003598 <TIM1_Init+0x13c>)
 80034a8:	f7fe fed4 	bl	8002254 <HAL_TIM_ConfigClockSource>
 80034ac:	4603      	mov	r3, r0
 80034ae:	2b00      	cmp	r3, #0
 80034b0:	d001      	beq.n	80034b6 <TIM1_Init+0x5a>
	    {
	      Error_Handler();
 80034b2:	f000 fa39 	bl	8003928 <Error_Handler>
	    }

	    if (HAL_TIM_PWM_Init(&htim1) != HAL_OK)
 80034b6:	4838      	ldr	r0, [pc, #224]	; (8003598 <TIM1_Init+0x13c>)
 80034b8:	f7fe fd9c 	bl	8001ff4 <HAL_TIM_PWM_Init>
 80034bc:	4603      	mov	r3, r0
 80034be:	2b00      	cmp	r3, #0
 80034c0:	d001      	beq.n	80034c6 <TIM1_Init+0x6a>
	    {
	      Error_Handler();
 80034c2:	f000 fa31 	bl	8003928 <Error_Handler>
	    }

	    sMasterConfig.MasterOutputTrigger = TIM_TRGO_RESET;
 80034c6:	2300      	movs	r3, #0
 80034c8:	63bb      	str	r3, [r7, #56]	; 0x38
	    sMasterConfig.MasterSlaveMode = TIM_MASTERSLAVEMODE_DISABLE;
 80034ca:	2300      	movs	r3, #0
 80034cc:	63fb      	str	r3, [r7, #60]	; 0x3c
	    if (HAL_TIMEx_MasterConfigSynchronization(&htim1, &sMasterConfig) != HAL_OK)
 80034ce:	f107 0338 	add.w	r3, r7, #56	; 0x38
 80034d2:	4619      	mov	r1, r3
 80034d4:	4830      	ldr	r0, [pc, #192]	; (8003598 <TIM1_Init+0x13c>)
 80034d6:	f7ff faf5 	bl	8002ac4 <HAL_TIMEx_MasterConfigSynchronization>
 80034da:	4603      	mov	r3, r0
 80034dc:	2b00      	cmp	r3, #0
 80034de:	d001      	beq.n	80034e4 <TIM1_Init+0x88>
	    {
	      Error_Handler();
 80034e0:	f000 fa22 	bl	8003928 <Error_Handler>
	    }

	    sConfigOC.OCMode = TIM_OCMODE_PWM1;
 80034e4:	2360      	movs	r3, #96	; 0x60
 80034e6:	61fb      	str	r3, [r7, #28]
	    sConfigOC.Pulse = 1000;
 80034e8:	f44f 737a 	mov.w	r3, #1000	; 0x3e8
 80034ec:	623b      	str	r3, [r7, #32]
	    sConfigOC.OCPolarity = TIM_OCPOLARITY_HIGH;
 80034ee:	2300      	movs	r3, #0
 80034f0:	627b      	str	r3, [r7, #36]	; 0x24
	    sConfigOC.OCNPolarity = TIM_OCNPOLARITY_LOW;
 80034f2:	2308      	movs	r3, #8
 80034f4:	62bb      	str	r3, [r7, #40]	; 0x28
	    sConfigOC.OCFastMode = TIM_OCFAST_DISABLE;
 80034f6:	2300      	movs	r3, #0
 80034f8:	62fb      	str	r3, [r7, #44]	; 0x2c
	    sConfigOC.OCIdleState = TIM_OCIDLESTATE_RESET;
 80034fa:	2300      	movs	r3, #0
 80034fc:	633b      	str	r3, [r7, #48]	; 0x30
	    sConfigOC.OCNIdleState = TIM_OCNIDLESTATE_RESET;
 80034fe:	2300      	movs	r3, #0
 8003500:	637b      	str	r3, [r7, #52]	; 0x34
	    if (HAL_TIM_PWM_ConfigChannel(&htim1, &sConfigOC, TIM_CHANNEL_1) != HAL_OK)
 8003502:	f107 031c 	add.w	r3, r7, #28
 8003506:	2200      	movs	r2, #0
 8003508:	4619      	mov	r1, r3
 800350a:	4823      	ldr	r0, [pc, #140]	; (8003598 <TIM1_Init+0x13c>)
 800350c:	f7fe fddc 	bl	80020c8 <HAL_TIM_PWM_ConfigChannel>
 8003510:	4603      	mov	r3, r0
 8003512:	2b00      	cmp	r3, #0
 8003514:	d001      	beq.n	800351a <TIM1_Init+0xbe>
	    {
	      Error_Handler();
 8003516:	f000 fa07 	bl	8003928 <Error_Handler>
	    }

	    sConfigOC.Pulse = 500;
 800351a:	f44f 73fa 	mov.w	r3, #500	; 0x1f4
 800351e:	623b      	str	r3, [r7, #32]
	    if (HAL_TIM_PWM_ConfigChannel(&htim1, &sConfigOC, TIM_CHANNEL_2) != HAL_OK)
 8003520:	f107 031c 	add.w	r3, r7, #28
 8003524:	2204      	movs	r2, #4
 8003526:	4619      	mov	r1, r3
 8003528:	481b      	ldr	r0, [pc, #108]	; (8003598 <TIM1_Init+0x13c>)
 800352a:	f7fe fdcd 	bl	80020c8 <HAL_TIM_PWM_ConfigChannel>
 800352e:	4603      	mov	r3, r0
 8003530:	2b00      	cmp	r3, #0
 8003532:	d001      	beq.n	8003538 <TIM1_Init+0xdc>
	    {
	      Error_Handler();
 8003534:	f000 f9f8 	bl	8003928 <Error_Handler>
	    }

	    sConfigOC.Pulse = 3000;
 8003538:	f640 33b8 	movw	r3, #3000	; 0xbb8
 800353c:	623b      	str	r3, [r7, #32]
	    if (HAL_TIM_PWM_ConfigChannel(&htim1, &sConfigOC, TIM_CHANNEL_3) != HAL_OK)
 800353e:	f107 031c 	add.w	r3, r7, #28
 8003542:	2208      	movs	r2, #8
 8003544:	4619      	mov	r1, r3
 8003546:	4814      	ldr	r0, [pc, #80]	; (8003598 <TIM1_Init+0x13c>)
 8003548:	f7fe fdbe 	bl	80020c8 <HAL_TIM_PWM_ConfigChannel>
 800354c:	4603      	mov	r3, r0
 800354e:	2b00      	cmp	r3, #0
 8003550:	d001      	beq.n	8003556 <TIM1_Init+0xfa>
	    {
	      Error_Handler();
 8003552:	f000 f9e9 	bl	8003928 <Error_Handler>
	    }

	    sBreakDeadTimeConfig.OffStateRunMode = TIM_OSSR_DISABLE;
 8003556:	2300      	movs	r3, #0
 8003558:	603b      	str	r3, [r7, #0]
	    sBreakDeadTimeConfig.OffStateIDLEMode = TIM_OSSI_DISABLE;
 800355a:	2300      	movs	r3, #0
 800355c:	607b      	str	r3, [r7, #4]
	    sBreakDeadTimeConfig.LockLevel = TIM_LOCKLEVEL_OFF;
 800355e:	2300      	movs	r3, #0
 8003560:	60bb      	str	r3, [r7, #8]
	    sBreakDeadTimeConfig.DeadTime = 10;
 8003562:	230a      	movs	r3, #10
 8003564:	60fb      	str	r3, [r7, #12]
	    sBreakDeadTimeConfig.BreakState = TIM_BREAK_DISABLE;
 8003566:	2300      	movs	r3, #0
 8003568:	613b      	str	r3, [r7, #16]
	    sBreakDeadTimeConfig.BreakPolarity = TIM_BREAKPOLARITY_LOW;
 800356a:	2300      	movs	r3, #0
 800356c:	617b      	str	r3, [r7, #20]
	    sBreakDeadTimeConfig.AutomaticOutput = TIM_AUTOMATICOUTPUT_ENABLE;
 800356e:	f44f 4380 	mov.w	r3, #16384	; 0x4000
 8003572:	61bb      	str	r3, [r7, #24]
	    if (HAL_TIMEx_ConfigBreakDeadTime(&htim1, &sBreakDeadTimeConfig) != HAL_OK)
 8003574:	463b      	mov	r3, r7
 8003576:	4619      	mov	r1, r3
 8003578:	4807      	ldr	r0, [pc, #28]	; (8003598 <TIM1_Init+0x13c>)
 800357a:	f7ff fae8 	bl	8002b4e <HAL_TIMEx_ConfigBreakDeadTime>
 800357e:	4603      	mov	r3, r0
 8003580:	2b00      	cmp	r3, #0
 8003582:	d001      	beq.n	8003588 <TIM1_Init+0x12c>
	    {
	      Error_Handler();
 8003584:	f000 f9d0 	bl	8003928 <Error_Handler>
	    }

	    HAL_TIM_MspPostInit(&htim1);
 8003588:	4803      	ldr	r0, [pc, #12]	; (8003598 <TIM1_Init+0x13c>)
 800358a:	f7ff ff49 	bl	8003420 <HAL_TIM_MspPostInit>
	    //HAL_TIM_Base_MspDeInit(&htim1);
	    //HAL_TIM_Base_MspInit(&htim1);
}
 800358e:	bf00      	nop
 8003590:	3750      	adds	r7, #80	; 0x50
 8003592:	46bd      	mov	sp, r7
 8003594:	bd80      	pop	{r7, pc}
 8003596:	bf00      	nop
 8003598:	200004f8 	.word	0x200004f8
 800359c:	40010000 	.word	0x40010000

080035a0 <main>:


int main(void)
{
 80035a0:	b580      	push	{r7, lr}
 80035a2:	b088      	sub	sp, #32
 80035a4:	af02      	add	r7, sp, #8
	HAL_Init();
 80035a6:	f7fc ff97 	bl	80004d8 <HAL_Init>

	int n = 0;
 80035aa:	2300      	movs	r3, #0
 80035ac:	617b      	str	r3, [r7, #20]
	__HAL_RCC_GPIOA_CLK_ENABLE();
 80035ae:	2300      	movs	r3, #0
 80035b0:	613b      	str	r3, [r7, #16]
 80035b2:	4b8a      	ldr	r3, [pc, #552]	; (80037dc <main+0x23c>)
 80035b4:	6b1b      	ldr	r3, [r3, #48]	; 0x30
 80035b6:	4a89      	ldr	r2, [pc, #548]	; (80037dc <main+0x23c>)
 80035b8:	f043 0301 	orr.w	r3, r3, #1
 80035bc:	6313      	str	r3, [r2, #48]	; 0x30
 80035be:	4b87      	ldr	r3, [pc, #540]	; (80037dc <main+0x23c>)
 80035c0:	6b1b      	ldr	r3, [r3, #48]	; 0x30
 80035c2:	f003 0301 	and.w	r3, r3, #1
 80035c6:	613b      	str	r3, [r7, #16]
 80035c8:	693b      	ldr	r3, [r7, #16]
	__HAL_RCC_GPIOB_CLK_ENABLE();
 80035ca:	2300      	movs	r3, #0
 80035cc:	60fb      	str	r3, [r7, #12]
 80035ce:	4b83      	ldr	r3, [pc, #524]	; (80037dc <main+0x23c>)
 80035d0:	6b1b      	ldr	r3, [r3, #48]	; 0x30
 80035d2:	4a82      	ldr	r2, [pc, #520]	; (80037dc <main+0x23c>)
 80035d4:	f043 0302 	orr.w	r3, r3, #2
 80035d8:	6313      	str	r3, [r2, #48]	; 0x30
 80035da:	4b80      	ldr	r3, [pc, #512]	; (80037dc <main+0x23c>)
 80035dc:	6b1b      	ldr	r3, [r3, #48]	; 0x30
 80035de:	f003 0302 	and.w	r3, r3, #2
 80035e2:	60fb      	str	r3, [r7, #12]
 80035e4:	68fb      	ldr	r3, [r7, #12]
	__HAL_RCC_USART2_CLK_ENABLE();
 80035e6:	2300      	movs	r3, #0
 80035e8:	60bb      	str	r3, [r7, #8]
 80035ea:	4b7c      	ldr	r3, [pc, #496]	; (80037dc <main+0x23c>)
 80035ec:	6c1b      	ldr	r3, [r3, #64]	; 0x40
 80035ee:	4a7b      	ldr	r2, [pc, #492]	; (80037dc <main+0x23c>)
 80035f0:	f443 3300 	orr.w	r3, r3, #131072	; 0x20000
 80035f4:	6413      	str	r3, [r2, #64]	; 0x40
 80035f6:	4b79      	ldr	r3, [pc, #484]	; (80037dc <main+0x23c>)
 80035f8:	6c1b      	ldr	r3, [r3, #64]	; 0x40
 80035fa:	f403 3300 	and.w	r3, r3, #131072	; 0x20000
 80035fe:	60bb      	str	r3, [r7, #8]
 8003600:	68bb      	ldr	r3, [r7, #8]
	//__HAL_RCC_SPI2_CLK_ENABLE();
	__HAL_RCC_I2C1_CLK_ENABLE();
 8003602:	2300      	movs	r3, #0
 8003604:	607b      	str	r3, [r7, #4]
 8003606:	4b75      	ldr	r3, [pc, #468]	; (80037dc <main+0x23c>)
 8003608:	6c1b      	ldr	r3, [r3, #64]	; 0x40
 800360a:	4a74      	ldr	r2, [pc, #464]	; (80037dc <main+0x23c>)
 800360c:	f443 1300 	orr.w	r3, r3, #2097152	; 0x200000
 8003610:	6413      	str	r3, [r2, #64]	; 0x40
 8003612:	4b72      	ldr	r3, [pc, #456]	; (80037dc <main+0x23c>)
 8003614:	6c1b      	ldr	r3, [r3, #64]	; 0x40
 8003616:	f403 1300 	and.w	r3, r3, #2097152	; 0x200000
 800361a:	607b      	str	r3, [r7, #4]
 800361c:	687b      	ldr	r3, [r7, #4]
	__HAL_RCC_PWR_CLK_ENABLE();
 800361e:	2300      	movs	r3, #0
 8003620:	603b      	str	r3, [r7, #0]
 8003622:	4b6e      	ldr	r3, [pc, #440]	; (80037dc <main+0x23c>)
 8003624:	6c1b      	ldr	r3, [r3, #64]	; 0x40
 8003626:	4a6d      	ldr	r2, [pc, #436]	; (80037dc <main+0x23c>)
 8003628:	f043 5380 	orr.w	r3, r3, #268435456	; 0x10000000
 800362c:	6413      	str	r3, [r2, #64]	; 0x40
 800362e:	4b6b      	ldr	r3, [pc, #428]	; (80037dc <main+0x23c>)
 8003630:	6c1b      	ldr	r3, [r3, #64]	; 0x40
 8003632:	f003 5380 	and.w	r3, r3, #268435456	; 0x10000000
 8003636:	603b      	str	r3, [r7, #0]
 8003638:	683b      	ldr	r3, [r7, #0]
	SystemClock_Config();
 800363a:	f000 f8f3 	bl	8003824 <SystemClock_Config>

	hardware_init();
 800363e:	f7ff fe6f 	bl	8003320 <hardware_init>
	TIM1_Init();
 8003642:	f7ff ff0b 	bl	800345c <TIM1_Init>

	//uint8_t res = ssd1306_Init();
	//printf("OLED init: %d\n", res);
	SSD1306_Init();
 8003646:	f000 f9d9 	bl	80039fc <SSD1306_Init>
	SSD1306_GotoXY(10,27);
 800364a:	211b      	movs	r1, #27
 800364c:	200a      	movs	r0, #10
 800364e:	f000 fb3f 	bl	8003cd0 <SSD1306_GotoXY>
	SSD1306_Puts("WLODEK", &Font_7x10, 1);
 8003652:	2201      	movs	r2, #1
 8003654:	4962      	ldr	r1, [pc, #392]	; (80037e0 <main+0x240>)
 8003656:	4863      	ldr	r0, [pc, #396]	; (80037e4 <main+0x244>)
 8003658:	f000 fbd0 	bl	8003dfc <SSD1306_Puts>
	SSD1306_GotoXY(10,52);
 800365c:	2134      	movs	r1, #52	; 0x34
 800365e:	200a      	movs	r0, #10
 8003660:	f000 fb36 	bl	8003cd0 <SSD1306_GotoXY>
	SSD1306_Puts("Test.", &Font_7x10, 1);
 8003664:	2201      	movs	r2, #1
 8003666:	495e      	ldr	r1, [pc, #376]	; (80037e0 <main+0x240>)
 8003668:	485f      	ldr	r0, [pc, #380]	; (80037e8 <main+0x248>)
 800366a:	f000 fbc7 	bl	8003dfc <SSD1306_Puts>
	SSD1306_UpdateScreen(); //display
 800366e:	f000 fa89 	bl	8003b84 <SSD1306_UpdateScreen>
	SSD1306_Fill(0x01);
 8003672:	2001      	movs	r0, #1
 8003674:	f000 fab4 	bl	8003be0 <SSD1306_Fill>
	HAL_Delay(1000);
 8003678:	f44f 707a 	mov.w	r0, #1000	; 0x3e8
 800367c:	f7fc ff98 	bl	80005b0 <HAL_Delay>


	HAL_TIM_Base_Start(&htim1);
 8003680:	485a      	ldr	r0, [pc, #360]	; (80037ec <main+0x24c>)
 8003682:	f7fe fc9c 	bl	8001fbe <HAL_TIM_Base_Start>
	HAL_TIM_PWM_Start(&htim1, TIM_CHANNEL_ALL);
 8003686:	2118      	movs	r1, #24
 8003688:	4858      	ldr	r0, [pc, #352]	; (80037ec <main+0x24c>)
 800368a:	f7fe fce9 	bl	8002060 <HAL_TIM_PWM_Start>
	HAL_TIMEx_PWMN_Start(&htim1,TIM_CHANNEL_ALL);
 800368e:	2118      	movs	r1, #24
 8003690:	4856      	ldr	r0, [pc, #344]	; (80037ec <main+0x24c>)
 8003692:	f7ff f9f6 	bl	8002a82 <HAL_TIMEx_PWMN_Start>
//	ssd1306_Fill(Black);


	while (1)
		{
			if (n == 0) send_string("Hello world!\r\n");
 8003696:	697b      	ldr	r3, [r7, #20]
 8003698:	2b00      	cmp	r3, #0
 800369a:	d103      	bne.n	80036a4 <main+0x104>
 800369c:	4854      	ldr	r0, [pc, #336]	; (80037f0 <main+0x250>)
 800369e:	f7ff fe29 	bl	80032f4 <send_string>
 80036a2:	e002      	b.n	80036aa <main+0x10a>
			else send_string("Hello world 2222!\r\n");
 80036a4:	4853      	ldr	r0, [pc, #332]	; (80037f4 <main+0x254>)
 80036a6:	f7ff fe25 	bl	80032f4 <send_string>
			n++;
 80036aa:	697b      	ldr	r3, [r7, #20]
 80036ac:	3301      	adds	r3, #1
 80036ae:	617b      	str	r3, [r7, #20]
			if (n > 1) n = 0;
 80036b0:	697b      	ldr	r3, [r7, #20]
 80036b2:	2b01      	cmp	r3, #1
 80036b4:	dd01      	ble.n	80036ba <main+0x11a>
 80036b6:	2300      	movs	r3, #0
 80036b8:	617b      	str	r3, [r7, #20]

			//uint8_t test;
			uint8_t buffer;
			//receive_string(buffer);
			if (__HAL_UART_GET_FLAG(&uart, UART_FLAG_RXNE) == SET){
 80036ba:	4b4f      	ldr	r3, [pc, #316]	; (80037f8 <main+0x258>)
 80036bc:	681b      	ldr	r3, [r3, #0]
 80036be:	681b      	ldr	r3, [r3, #0]
	//		}
			//send_string(&buffer);
			//send_string("\r\n");
			}

				  SSD1306_Clear();
 80036c0:	f000 fbc1 	bl	8003e46 <SSD1306_Clear>
				  SSD1306_DrawBitmap(0,0,horse1,128,64,1);
 80036c4:	2301      	movs	r3, #1
 80036c6:	9301      	str	r3, [sp, #4]
 80036c8:	2340      	movs	r3, #64	; 0x40
 80036ca:	9300      	str	r3, [sp, #0]
 80036cc:	2380      	movs	r3, #128	; 0x80
 80036ce:	4a4b      	ldr	r2, [pc, #300]	; (80037fc <main+0x25c>)
 80036d0:	2100      	movs	r1, #0
 80036d2:	2000      	movs	r0, #0
 80036d4:	f000 f92b 	bl	800392e <SSD1306_DrawBitmap>
				  SSD1306_UpdateScreen();
 80036d8:	f000 fa54 	bl	8003b84 <SSD1306_UpdateScreen>

				  SSD1306_Clear();
 80036dc:	f000 fbb3 	bl	8003e46 <SSD1306_Clear>
				  SSD1306_DrawBitmap(0,0,horse2,128,64,1);
 80036e0:	2301      	movs	r3, #1
 80036e2:	9301      	str	r3, [sp, #4]
 80036e4:	2340      	movs	r3, #64	; 0x40
 80036e6:	9300      	str	r3, [sp, #0]
 80036e8:	2380      	movs	r3, #128	; 0x80
 80036ea:	4a45      	ldr	r2, [pc, #276]	; (8003800 <main+0x260>)
 80036ec:	2100      	movs	r1, #0
 80036ee:	2000      	movs	r0, #0
 80036f0:	f000 f91d 	bl	800392e <SSD1306_DrawBitmap>
				  SSD1306_UpdateScreen();
 80036f4:	f000 fa46 	bl	8003b84 <SSD1306_UpdateScreen>

				  SSD1306_Clear();
 80036f8:	f000 fba5 	bl	8003e46 <SSD1306_Clear>
				  SSD1306_DrawBitmap(0,0,horse3,128,64,1);
 80036fc:	2301      	movs	r3, #1
 80036fe:	9301      	str	r3, [sp, #4]
 8003700:	2340      	movs	r3, #64	; 0x40
 8003702:	9300      	str	r3, [sp, #0]
 8003704:	2380      	movs	r3, #128	; 0x80
 8003706:	4a3f      	ldr	r2, [pc, #252]	; (8003804 <main+0x264>)
 8003708:	2100      	movs	r1, #0
 800370a:	2000      	movs	r0, #0
 800370c:	f000 f90f 	bl	800392e <SSD1306_DrawBitmap>
				  SSD1306_UpdateScreen();
 8003710:	f000 fa38 	bl	8003b84 <SSD1306_UpdateScreen>

				  SSD1306_Clear();
 8003714:	f000 fb97 	bl	8003e46 <SSD1306_Clear>
				  SSD1306_DrawBitmap(0,0,horse4,128,64,1);
 8003718:	2301      	movs	r3, #1
 800371a:	9301      	str	r3, [sp, #4]
 800371c:	2340      	movs	r3, #64	; 0x40
 800371e:	9300      	str	r3, [sp, #0]
 8003720:	2380      	movs	r3, #128	; 0x80
 8003722:	4a39      	ldr	r2, [pc, #228]	; (8003808 <main+0x268>)
 8003724:	2100      	movs	r1, #0
 8003726:	2000      	movs	r0, #0
 8003728:	f000 f901 	bl	800392e <SSD1306_DrawBitmap>
				  SSD1306_UpdateScreen();
 800372c:	f000 fa2a 	bl	8003b84 <SSD1306_UpdateScreen>

				  SSD1306_Clear();
 8003730:	f000 fb89 	bl	8003e46 <SSD1306_Clear>
				  SSD1306_DrawBitmap(0,0,horse5,128,64,1);
 8003734:	2301      	movs	r3, #1
 8003736:	9301      	str	r3, [sp, #4]
 8003738:	2340      	movs	r3, #64	; 0x40
 800373a:	9300      	str	r3, [sp, #0]
 800373c:	2380      	movs	r3, #128	; 0x80
 800373e:	4a33      	ldr	r2, [pc, #204]	; (800380c <main+0x26c>)
 8003740:	2100      	movs	r1, #0
 8003742:	2000      	movs	r0, #0
 8003744:	f000 f8f3 	bl	800392e <SSD1306_DrawBitmap>
				  SSD1306_UpdateScreen();
 8003748:	f000 fa1c 	bl	8003b84 <SSD1306_UpdateScreen>

				  SSD1306_Clear();
 800374c:	f000 fb7b 	bl	8003e46 <SSD1306_Clear>
				  SSD1306_DrawBitmap(0,0,horse6,128,64,1);
 8003750:	2301      	movs	r3, #1
 8003752:	9301      	str	r3, [sp, #4]
 8003754:	2340      	movs	r3, #64	; 0x40
 8003756:	9300      	str	r3, [sp, #0]
 8003758:	2380      	movs	r3, #128	; 0x80
 800375a:	4a2d      	ldr	r2, [pc, #180]	; (8003810 <main+0x270>)
 800375c:	2100      	movs	r1, #0
 800375e:	2000      	movs	r0, #0
 8003760:	f000 f8e5 	bl	800392e <SSD1306_DrawBitmap>
				  SSD1306_UpdateScreen();
 8003764:	f000 fa0e 	bl	8003b84 <SSD1306_UpdateScreen>


				  SSD1306_Clear();
 8003768:	f000 fb6d 	bl	8003e46 <SSD1306_Clear>
				  SSD1306_DrawBitmap(0,0,horse7,128,64,1);
 800376c:	2301      	movs	r3, #1
 800376e:	9301      	str	r3, [sp, #4]
 8003770:	2340      	movs	r3, #64	; 0x40
 8003772:	9300      	str	r3, [sp, #0]
 8003774:	2380      	movs	r3, #128	; 0x80
 8003776:	4a27      	ldr	r2, [pc, #156]	; (8003814 <main+0x274>)
 8003778:	2100      	movs	r1, #0
 800377a:	2000      	movs	r0, #0
 800377c:	f000 f8d7 	bl	800392e <SSD1306_DrawBitmap>
				  SSD1306_UpdateScreen();
 8003780:	f000 fa00 	bl	8003b84 <SSD1306_UpdateScreen>

				  SSD1306_Clear();
 8003784:	f000 fb5f 	bl	8003e46 <SSD1306_Clear>
				  SSD1306_DrawBitmap(0,0,horse8,128,64,1);
 8003788:	2301      	movs	r3, #1
 800378a:	9301      	str	r3, [sp, #4]
 800378c:	2340      	movs	r3, #64	; 0x40
 800378e:	9300      	str	r3, [sp, #0]
 8003790:	2380      	movs	r3, #128	; 0x80
 8003792:	4a21      	ldr	r2, [pc, #132]	; (8003818 <main+0x278>)
 8003794:	2100      	movs	r1, #0
 8003796:	2000      	movs	r0, #0
 8003798:	f000 f8c9 	bl	800392e <SSD1306_DrawBitmap>
				  SSD1306_UpdateScreen();
 800379c:	f000 f9f2 	bl	8003b84 <SSD1306_UpdateScreen>


				  SSD1306_Clear();
 80037a0:	f000 fb51 	bl	8003e46 <SSD1306_Clear>
				  SSD1306_DrawBitmap(0,0,horse9,128,64,1);
 80037a4:	2301      	movs	r3, #1
 80037a6:	9301      	str	r3, [sp, #4]
 80037a8:	2340      	movs	r3, #64	; 0x40
 80037aa:	9300      	str	r3, [sp, #0]
 80037ac:	2380      	movs	r3, #128	; 0x80
 80037ae:	4a1b      	ldr	r2, [pc, #108]	; (800381c <main+0x27c>)
 80037b0:	2100      	movs	r1, #0
 80037b2:	2000      	movs	r0, #0
 80037b4:	f000 f8bb 	bl	800392e <SSD1306_DrawBitmap>
				  SSD1306_UpdateScreen();
 80037b8:	f000 f9e4 	bl	8003b84 <SSD1306_UpdateScreen>


				  SSD1306_Clear();
 80037bc:	f000 fb43 	bl	8003e46 <SSD1306_Clear>
				  SSD1306_DrawBitmap(0,0,horse10,128,64,1);
 80037c0:	2301      	movs	r3, #1
 80037c2:	9301      	str	r3, [sp, #4]
 80037c4:	2340      	movs	r3, #64	; 0x40
 80037c6:	9300      	str	r3, [sp, #0]
 80037c8:	2380      	movs	r3, #128	; 0x80
 80037ca:	4a15      	ldr	r2, [pc, #84]	; (8003820 <main+0x280>)
 80037cc:	2100      	movs	r1, #0
 80037ce:	2000      	movs	r0, #0
 80037d0:	f000 f8ad 	bl	800392e <SSD1306_DrawBitmap>
				  SSD1306_UpdateScreen();
 80037d4:	f000 f9d6 	bl	8003b84 <SSD1306_UpdateScreen>
		{
 80037d8:	e75d      	b.n	8003696 <main+0xf6>
 80037da:	bf00      	nop
 80037dc:	40023800 	.word	0x40023800
 80037e0:	20000008 	.word	0x20000008
 80037e4:	08009088 	.word	0x08009088
 80037e8:	08009090 	.word	0x08009090
 80037ec:	200004f8 	.word	0x200004f8
 80037f0:	08009098 	.word	0x08009098
 80037f4:	080090a8 	.word	0x080090a8
 80037f8:	20000548 	.word	0x20000548
 80037fc:	08006888 	.word	0x08006888
 8003800:	08006c88 	.word	0x08006c88
 8003804:	08007088 	.word	0x08007088
 8003808:	08007488 	.word	0x08007488
 800380c:	08007888 	.word	0x08007888
 8003810:	08007c88 	.word	0x08007c88
 8003814:	08008088 	.word	0x08008088
 8003818:	08008488 	.word	0x08008488
 800381c:	08008888 	.word	0x08008888
 8003820:	08008c88 	.word	0x08008c88

08003824 <SystemClock_Config>:

	return 0;
}

void SystemClock_Config(void)
{
 8003824:	b580      	push	{r7, lr}
 8003826:	b098      	sub	sp, #96	; 0x60
 8003828:	af00      	add	r7, sp, #0
  RCC_OscInitTypeDef RCC_OscInitStruct = {0};
 800382a:	f107 0330 	add.w	r3, r7, #48	; 0x30
 800382e:	2230      	movs	r2, #48	; 0x30
 8003830:	2100      	movs	r1, #0
 8003832:	4618      	mov	r0, r3
 8003834:	f000 fc16 	bl	8004064 <memset>
  RCC_ClkInitTypeDef RCC_ClkInitStruct = {0};
 8003838:	f107 031c 	add.w	r3, r7, #28
 800383c:	2200      	movs	r2, #0
 800383e:	601a      	str	r2, [r3, #0]
 8003840:	605a      	str	r2, [r3, #4]
 8003842:	609a      	str	r2, [r3, #8]
 8003844:	60da      	str	r2, [r3, #12]
 8003846:	611a      	str	r2, [r3, #16]
  RCC_PeriphCLKInitTypeDef PeriphClkInitStruct = {0};
 8003848:	f107 030c 	add.w	r3, r7, #12
 800384c:	2200      	movs	r2, #0
 800384e:	601a      	str	r2, [r3, #0]
 8003850:	605a      	str	r2, [r3, #4]
 8003852:	609a      	str	r2, [r3, #8]
 8003854:	60da      	str	r2, [r3, #12]

  /** Configure the main internal regulator output voltage
  */
  __HAL_RCC_PWR_CLK_ENABLE();
 8003856:	2300      	movs	r3, #0
 8003858:	60bb      	str	r3, [r7, #8]
 800385a:	4b31      	ldr	r3, [pc, #196]	; (8003920 <SystemClock_Config+0xfc>)
 800385c:	6c1b      	ldr	r3, [r3, #64]	; 0x40
 800385e:	4a30      	ldr	r2, [pc, #192]	; (8003920 <SystemClock_Config+0xfc>)
 8003860:	f043 5380 	orr.w	r3, r3, #268435456	; 0x10000000
 8003864:	6413      	str	r3, [r2, #64]	; 0x40
 8003866:	4b2e      	ldr	r3, [pc, #184]	; (8003920 <SystemClock_Config+0xfc>)
 8003868:	6c1b      	ldr	r3, [r3, #64]	; 0x40
 800386a:	f003 5380 	and.w	r3, r3, #268435456	; 0x10000000
 800386e:	60bb      	str	r3, [r7, #8]
 8003870:	68bb      	ldr	r3, [r7, #8]
  __HAL_PWR_VOLTAGESCALING_CONFIG(PWR_REGULATOR_VOLTAGE_SCALE1);
 8003872:	2300      	movs	r3, #0
 8003874:	607b      	str	r3, [r7, #4]
 8003876:	4b2b      	ldr	r3, [pc, #172]	; (8003924 <SystemClock_Config+0x100>)
 8003878:	681b      	ldr	r3, [r3, #0]
 800387a:	4a2a      	ldr	r2, [pc, #168]	; (8003924 <SystemClock_Config+0x100>)
 800387c:	f443 4380 	orr.w	r3, r3, #16384	; 0x4000
 8003880:	6013      	str	r3, [r2, #0]
 8003882:	4b28      	ldr	r3, [pc, #160]	; (8003924 <SystemClock_Config+0x100>)
 8003884:	681b      	ldr	r3, [r3, #0]
 8003886:	f403 4380 	and.w	r3, r3, #16384	; 0x4000
 800388a:	607b      	str	r3, [r7, #4]
 800388c:	687b      	ldr	r3, [r7, #4]
  /** Initializes the CPU, AHB and APB busses clocks
  */
  RCC_OscInitStruct.OscillatorType = RCC_OSCILLATORTYPE_HSE;
 800388e:	2301      	movs	r3, #1
 8003890:	633b      	str	r3, [r7, #48]	; 0x30
  RCC_OscInitStruct.HSEState = RCC_HSE_ON;
 8003892:	f44f 3380 	mov.w	r3, #65536	; 0x10000
 8003896:	637b      	str	r3, [r7, #52]	; 0x34
  RCC_OscInitStruct.PLL.PLLState = RCC_PLL_ON;
 8003898:	2302      	movs	r3, #2
 800389a:	64bb      	str	r3, [r7, #72]	; 0x48
  RCC_OscInitStruct.PLL.PLLSource = RCC_PLLSOURCE_HSE;
 800389c:	f44f 0380 	mov.w	r3, #4194304	; 0x400000
 80038a0:	64fb      	str	r3, [r7, #76]	; 0x4c
  RCC_OscInitStruct.PLL.PLLM = 8;
 80038a2:	2308      	movs	r3, #8
 80038a4:	653b      	str	r3, [r7, #80]	; 0x50
  RCC_OscInitStruct.PLL.PLLN = 336;
 80038a6:	f44f 73a8 	mov.w	r3, #336	; 0x150
 80038aa:	657b      	str	r3, [r7, #84]	; 0x54
  RCC_OscInitStruct.PLL.PLLP = RCC_PLLP_DIV2;
 80038ac:	2302      	movs	r3, #2
 80038ae:	65bb      	str	r3, [r7, #88]	; 0x58
  RCC_OscInitStruct.PLL.PLLQ = 7;
 80038b0:	2307      	movs	r3, #7
 80038b2:	65fb      	str	r3, [r7, #92]	; 0x5c
  if (HAL_RCC_OscConfig(&RCC_OscInitStruct) != HAL_OK)
 80038b4:	f107 0330 	add.w	r3, r7, #48	; 0x30
 80038b8:	4618      	mov	r0, r3
 80038ba:	f7fd fe39 	bl	8001530 <HAL_RCC_OscConfig>
 80038be:	4603      	mov	r3, r0
 80038c0:	2b00      	cmp	r3, #0
 80038c2:	d001      	beq.n	80038c8 <SystemClock_Config+0xa4>
  {
    Error_Handler();
 80038c4:	f000 f830 	bl	8003928 <Error_Handler>
  }
  /** Initializes the CPU, AHB and APB busses clocks
  */
  RCC_ClkInitStruct.ClockType = RCC_CLOCKTYPE_HCLK|RCC_CLOCKTYPE_SYSCLK
 80038c8:	230f      	movs	r3, #15
 80038ca:	61fb      	str	r3, [r7, #28]
                              |RCC_CLOCKTYPE_PCLK1|RCC_CLOCKTYPE_PCLK2;
  RCC_ClkInitStruct.SYSCLKSource = RCC_SYSCLKSOURCE_PLLCLK;
 80038cc:	2302      	movs	r3, #2
 80038ce:	623b      	str	r3, [r7, #32]
  RCC_ClkInitStruct.AHBCLKDivider = RCC_SYSCLK_DIV1;
 80038d0:	2300      	movs	r3, #0
 80038d2:	627b      	str	r3, [r7, #36]	; 0x24
  RCC_ClkInitStruct.APB1CLKDivider = RCC_HCLK_DIV4;
 80038d4:	f44f 53a0 	mov.w	r3, #5120	; 0x1400
 80038d8:	62bb      	str	r3, [r7, #40]	; 0x28
  RCC_ClkInitStruct.APB2CLKDivider = RCC_HCLK_DIV2;
 80038da:	f44f 5380 	mov.w	r3, #4096	; 0x1000
 80038de:	62fb      	str	r3, [r7, #44]	; 0x2c

  if (HAL_RCC_ClockConfig(&RCC_ClkInitStruct, FLASH_LATENCY_5) != HAL_OK)
 80038e0:	f107 031c 	add.w	r3, r7, #28
 80038e4:	2105      	movs	r1, #5
 80038e6:	4618      	mov	r0, r3
 80038e8:	f7fe f864 	bl	80019b4 <HAL_RCC_ClockConfig>
 80038ec:	4603      	mov	r3, r0
 80038ee:	2b00      	cmp	r3, #0
 80038f0:	d001      	beq.n	80038f6 <SystemClock_Config+0xd2>
  {
    Error_Handler();
 80038f2:	f000 f819 	bl	8003928 <Error_Handler>
  }
  PeriphClkInitStruct.PeriphClockSelection = RCC_PERIPHCLK_I2S;
 80038f6:	2301      	movs	r3, #1
 80038f8:	60fb      	str	r3, [r7, #12]
  PeriphClkInitStruct.PLLI2S.PLLI2SN = 192;
 80038fa:	23c0      	movs	r3, #192	; 0xc0
 80038fc:	613b      	str	r3, [r7, #16]
  PeriphClkInitStruct.PLLI2S.PLLI2SR = 2;
 80038fe:	2302      	movs	r3, #2
 8003900:	617b      	str	r3, [r7, #20]
  if (HAL_RCCEx_PeriphCLKConfig(&PeriphClkInitStruct) != HAL_OK)
 8003902:	f107 030c 	add.w	r3, r7, #12
 8003906:	4618      	mov	r0, r3
 8003908:	f7fe fa42 	bl	8001d90 <HAL_RCCEx_PeriphCLKConfig>
 800390c:	4603      	mov	r3, r0
 800390e:	2b00      	cmp	r3, #0
 8003910:	d001      	beq.n	8003916 <SystemClock_Config+0xf2>
  {
    Error_Handler();
 8003912:	f000 f809 	bl	8003928 <Error_Handler>
  }
}
 8003916:	bf00      	nop
 8003918:	3760      	adds	r7, #96	; 0x60
 800391a:	46bd      	mov	sp, r7
 800391c:	bd80      	pop	{r7, pc}
 800391e:	bf00      	nop
 8003920:	40023800 	.word	0x40023800
 8003924:	40007000 	.word	0x40007000

08003928 <Error_Handler>:


void Error_Handler(void)
{
 8003928:	b480      	push	{r7}
 800392a:	af00      	add	r7, sp, #0
  while(1)
 800392c:	e7fe      	b.n	800392c <Error_Handler+0x4>

0800392e <SSD1306_DrawBitmap>:
 800392e:	b580      	push	{r7, lr}
 8003930:	b086      	sub	sp, #24
 8003932:	af00      	add	r7, sp, #0
 8003934:	60ba      	str	r2, [r7, #8]
 8003936:	461a      	mov	r2, r3
 8003938:	4603      	mov	r3, r0
 800393a:	81fb      	strh	r3, [r7, #14]
 800393c:	460b      	mov	r3, r1
 800393e:	81bb      	strh	r3, [r7, #12]
 8003940:	4613      	mov	r3, r2
 8003942:	80fb      	strh	r3, [r7, #6]
 8003944:	f9b7 3006 	ldrsh.w	r3, [r7, #6]
 8003948:	3307      	adds	r3, #7
 800394a:	2b00      	cmp	r3, #0
 800394c:	da00      	bge.n	8003950 <SSD1306_DrawBitmap+0x22>
 800394e:	3307      	adds	r3, #7
 8003950:	10db      	asrs	r3, r3, #3
 8003952:	823b      	strh	r3, [r7, #16]
 8003954:	2300      	movs	r3, #0
 8003956:	75fb      	strb	r3, [r7, #23]
 8003958:	2300      	movs	r3, #0
 800395a:	82bb      	strh	r3, [r7, #20]
 800395c:	e044      	b.n	80039e8 <SSD1306_DrawBitmap+0xba>
 800395e:	2300      	movs	r3, #0
 8003960:	827b      	strh	r3, [r7, #18]
 8003962:	e02f      	b.n	80039c4 <SSD1306_DrawBitmap+0x96>
 8003964:	8a7b      	ldrh	r3, [r7, #18]
 8003966:	f003 0307 	and.w	r3, r3, #7
 800396a:	2b00      	cmp	r3, #0
 800396c:	d003      	beq.n	8003976 <SSD1306_DrawBitmap+0x48>
 800396e:	7dfb      	ldrb	r3, [r7, #23]
 8003970:	005b      	lsls	r3, r3, #1
 8003972:	75fb      	strb	r3, [r7, #23]
 8003974:	e012      	b.n	800399c <SSD1306_DrawBitmap+0x6e>
 8003976:	f9b7 3014 	ldrsh.w	r3, [r7, #20]
 800397a:	f9b7 2010 	ldrsh.w	r2, [r7, #16]
 800397e:	fb02 f203 	mul.w	r2, r2, r3
 8003982:	f9b7 3012 	ldrsh.w	r3, [r7, #18]
 8003986:	2b00      	cmp	r3, #0
 8003988:	da00      	bge.n	800398c <SSD1306_DrawBitmap+0x5e>
 800398a:	3307      	adds	r3, #7
 800398c:	10db      	asrs	r3, r3, #3
 800398e:	b21b      	sxth	r3, r3
 8003990:	4413      	add	r3, r2
 8003992:	461a      	mov	r2, r3
 8003994:	68bb      	ldr	r3, [r7, #8]
 8003996:	4413      	add	r3, r2
 8003998:	781b      	ldrb	r3, [r3, #0]
 800399a:	75fb      	strb	r3, [r7, #23]
 800399c:	f997 3017 	ldrsb.w	r3, [r7, #23]
 80039a0:	2b00      	cmp	r3, #0
 80039a2:	da09      	bge.n	80039b8 <SSD1306_DrawBitmap+0x8a>
 80039a4:	89fa      	ldrh	r2, [r7, #14]
 80039a6:	8a7b      	ldrh	r3, [r7, #18]
 80039a8:	4413      	add	r3, r2
 80039aa:	b29b      	uxth	r3, r3
 80039ac:	89b9      	ldrh	r1, [r7, #12]
 80039ae:	8cba      	ldrh	r2, [r7, #36]	; 0x24
 80039b0:	b2d2      	uxtb	r2, r2
 80039b2:	4618      	mov	r0, r3
 80039b4:	f000 f92c 	bl	8003c10 <SSD1306_DrawPixel>
 80039b8:	f9b7 3012 	ldrsh.w	r3, [r7, #18]
 80039bc:	b29b      	uxth	r3, r3
 80039be:	3301      	adds	r3, #1
 80039c0:	b29b      	uxth	r3, r3
 80039c2:	827b      	strh	r3, [r7, #18]
 80039c4:	f9b7 2012 	ldrsh.w	r2, [r7, #18]
 80039c8:	f9b7 3006 	ldrsh.w	r3, [r7, #6]
 80039cc:	429a      	cmp	r2, r3
 80039ce:	dbc9      	blt.n	8003964 <SSD1306_DrawBitmap+0x36>
 80039d0:	f9b7 3014 	ldrsh.w	r3, [r7, #20]
 80039d4:	b29b      	uxth	r3, r3
 80039d6:	3301      	adds	r3, #1
 80039d8:	b29b      	uxth	r3, r3
 80039da:	82bb      	strh	r3, [r7, #20]
 80039dc:	f9b7 300c 	ldrsh.w	r3, [r7, #12]
 80039e0:	b29b      	uxth	r3, r3
 80039e2:	3301      	adds	r3, #1
 80039e4:	b29b      	uxth	r3, r3
 80039e6:	81bb      	strh	r3, [r7, #12]
 80039e8:	f9b7 2014 	ldrsh.w	r2, [r7, #20]
 80039ec:	f9b7 3020 	ldrsh.w	r3, [r7, #32]
 80039f0:	429a      	cmp	r2, r3
 80039f2:	dbb4      	blt.n	800395e <SSD1306_DrawBitmap+0x30>
 80039f4:	bf00      	nop
 80039f6:	3718      	adds	r7, #24
 80039f8:	46bd      	mov	sp, r7
 80039fa:	bd80      	pop	{r7, pc}

080039fc <SSD1306_Init>:
 80039fc:	b580      	push	{r7, lr}
 80039fe:	b082      	sub	sp, #8
 8003a00:	af00      	add	r7, sp, #0
 8003a02:	f000 fa29 	bl	8003e58 <ssd1306_I2C_Init>
 8003a06:	f644 6320 	movw	r3, #20000	; 0x4e20
 8003a0a:	2201      	movs	r2, #1
 8003a0c:	2178      	movs	r1, #120	; 0x78
 8003a0e:	485b      	ldr	r0, [pc, #364]	; (8003b7c <SSD1306_Init+0x180>)
 8003a10:	f7fd fa74 	bl	8000efc <HAL_I2C_IsDeviceReady>
 8003a14:	4603      	mov	r3, r0
 8003a16:	2b00      	cmp	r3, #0
 8003a18:	d001      	beq.n	8003a1e <SSD1306_Init+0x22>
 8003a1a:	2300      	movs	r3, #0
 8003a1c:	e0a9      	b.n	8003b72 <SSD1306_Init+0x176>
 8003a1e:	f640 13c4 	movw	r3, #2500	; 0x9c4
 8003a22:	607b      	str	r3, [r7, #4]
 8003a24:	e002      	b.n	8003a2c <SSD1306_Init+0x30>
 8003a26:	687b      	ldr	r3, [r7, #4]
 8003a28:	3b01      	subs	r3, #1
 8003a2a:	607b      	str	r3, [r7, #4]
 8003a2c:	687b      	ldr	r3, [r7, #4]
 8003a2e:	2b00      	cmp	r3, #0
 8003a30:	d1f9      	bne.n	8003a26 <SSD1306_Init+0x2a>
 8003a32:	22ae      	movs	r2, #174	; 0xae
 8003a34:	2100      	movs	r1, #0
 8003a36:	2078      	movs	r0, #120	; 0x78
 8003a38:	f000 fa6a 	bl	8003f10 <ssd1306_I2C_Write>
 8003a3c:	2220      	movs	r2, #32
 8003a3e:	2100      	movs	r1, #0
 8003a40:	2078      	movs	r0, #120	; 0x78
 8003a42:	f000 fa65 	bl	8003f10 <ssd1306_I2C_Write>
 8003a46:	2210      	movs	r2, #16
 8003a48:	2100      	movs	r1, #0
 8003a4a:	2078      	movs	r0, #120	; 0x78
 8003a4c:	f000 fa60 	bl	8003f10 <ssd1306_I2C_Write>
 8003a50:	22b0      	movs	r2, #176	; 0xb0
 8003a52:	2100      	movs	r1, #0
 8003a54:	2078      	movs	r0, #120	; 0x78
 8003a56:	f000 fa5b 	bl	8003f10 <ssd1306_I2C_Write>
 8003a5a:	22c8      	movs	r2, #200	; 0xc8
 8003a5c:	2100      	movs	r1, #0
 8003a5e:	2078      	movs	r0, #120	; 0x78
 8003a60:	f000 fa56 	bl	8003f10 <ssd1306_I2C_Write>
 8003a64:	2200      	movs	r2, #0
 8003a66:	2100      	movs	r1, #0
 8003a68:	2078      	movs	r0, #120	; 0x78
 8003a6a:	f000 fa51 	bl	8003f10 <ssd1306_I2C_Write>
 8003a6e:	2210      	movs	r2, #16
 8003a70:	2100      	movs	r1, #0
 8003a72:	2078      	movs	r0, #120	; 0x78
 8003a74:	f000 fa4c 	bl	8003f10 <ssd1306_I2C_Write>
 8003a78:	2240      	movs	r2, #64	; 0x40
 8003a7a:	2100      	movs	r1, #0
 8003a7c:	2078      	movs	r0, #120	; 0x78
 8003a7e:	f000 fa47 	bl	8003f10 <ssd1306_I2C_Write>
 8003a82:	2281      	movs	r2, #129	; 0x81
 8003a84:	2100      	movs	r1, #0
 8003a86:	2078      	movs	r0, #120	; 0x78
 8003a88:	f000 fa42 	bl	8003f10 <ssd1306_I2C_Write>
 8003a8c:	22ff      	movs	r2, #255	; 0xff
 8003a8e:	2100      	movs	r1, #0
 8003a90:	2078      	movs	r0, #120	; 0x78
 8003a92:	f000 fa3d 	bl	8003f10 <ssd1306_I2C_Write>
 8003a96:	22a1      	movs	r2, #161	; 0xa1
 8003a98:	2100      	movs	r1, #0
 8003a9a:	2078      	movs	r0, #120	; 0x78
 8003a9c:	f000 fa38 	bl	8003f10 <ssd1306_I2C_Write>
 8003aa0:	22a6      	movs	r2, #166	; 0xa6
 8003aa2:	2100      	movs	r1, #0
 8003aa4:	2078      	movs	r0, #120	; 0x78
 8003aa6:	f000 fa33 	bl	8003f10 <ssd1306_I2C_Write>
 8003aaa:	22a8      	movs	r2, #168	; 0xa8
 8003aac:	2100      	movs	r1, #0
 8003aae:	2078      	movs	r0, #120	; 0x78
 8003ab0:	f000 fa2e 	bl	8003f10 <ssd1306_I2C_Write>
 8003ab4:	223f      	movs	r2, #63	; 0x3f
 8003ab6:	2100      	movs	r1, #0
 8003ab8:	2078      	movs	r0, #120	; 0x78
 8003aba:	f000 fa29 	bl	8003f10 <ssd1306_I2C_Write>
 8003abe:	22a4      	movs	r2, #164	; 0xa4
 8003ac0:	2100      	movs	r1, #0
 8003ac2:	2078      	movs	r0, #120	; 0x78
 8003ac4:	f000 fa24 	bl	8003f10 <ssd1306_I2C_Write>
 8003ac8:	22d3      	movs	r2, #211	; 0xd3
 8003aca:	2100      	movs	r1, #0
 8003acc:	2078      	movs	r0, #120	; 0x78
 8003ace:	f000 fa1f 	bl	8003f10 <ssd1306_I2C_Write>
 8003ad2:	2200      	movs	r2, #0
 8003ad4:	2100      	movs	r1, #0
 8003ad6:	2078      	movs	r0, #120	; 0x78
 8003ad8:	f000 fa1a 	bl	8003f10 <ssd1306_I2C_Write>
 8003adc:	22d5      	movs	r2, #213	; 0xd5
 8003ade:	2100      	movs	r1, #0
 8003ae0:	2078      	movs	r0, #120	; 0x78
 8003ae2:	f000 fa15 	bl	8003f10 <ssd1306_I2C_Write>
 8003ae6:	22f0      	movs	r2, #240	; 0xf0
 8003ae8:	2100      	movs	r1, #0
 8003aea:	2078      	movs	r0, #120	; 0x78
 8003aec:	f000 fa10 	bl	8003f10 <ssd1306_I2C_Write>
 8003af0:	22d9      	movs	r2, #217	; 0xd9
 8003af2:	2100      	movs	r1, #0
 8003af4:	2078      	movs	r0, #120	; 0x78
 8003af6:	f000 fa0b 	bl	8003f10 <ssd1306_I2C_Write>
 8003afa:	2222      	movs	r2, #34	; 0x22
 8003afc:	2100      	movs	r1, #0
 8003afe:	2078      	movs	r0, #120	; 0x78
 8003b00:	f000 fa06 	bl	8003f10 <ssd1306_I2C_Write>
 8003b04:	22da      	movs	r2, #218	; 0xda
 8003b06:	2100      	movs	r1, #0
 8003b08:	2078      	movs	r0, #120	; 0x78
 8003b0a:	f000 fa01 	bl	8003f10 <ssd1306_I2C_Write>
 8003b0e:	2212      	movs	r2, #18
 8003b10:	2100      	movs	r1, #0
 8003b12:	2078      	movs	r0, #120	; 0x78
 8003b14:	f000 f9fc 	bl	8003f10 <ssd1306_I2C_Write>
 8003b18:	22db      	movs	r2, #219	; 0xdb
 8003b1a:	2100      	movs	r1, #0
 8003b1c:	2078      	movs	r0, #120	; 0x78
 8003b1e:	f000 f9f7 	bl	8003f10 <ssd1306_I2C_Write>
 8003b22:	2220      	movs	r2, #32
 8003b24:	2100      	movs	r1, #0
 8003b26:	2078      	movs	r0, #120	; 0x78
 8003b28:	f000 f9f2 	bl	8003f10 <ssd1306_I2C_Write>
 8003b2c:	228d      	movs	r2, #141	; 0x8d
 8003b2e:	2100      	movs	r1, #0
 8003b30:	2078      	movs	r0, #120	; 0x78
 8003b32:	f000 f9ed 	bl	8003f10 <ssd1306_I2C_Write>
 8003b36:	2214      	movs	r2, #20
 8003b38:	2100      	movs	r1, #0
 8003b3a:	2078      	movs	r0, #120	; 0x78
 8003b3c:	f000 f9e8 	bl	8003f10 <ssd1306_I2C_Write>
 8003b40:	22af      	movs	r2, #175	; 0xaf
 8003b42:	2100      	movs	r1, #0
 8003b44:	2078      	movs	r0, #120	; 0x78
 8003b46:	f000 f9e3 	bl	8003f10 <ssd1306_I2C_Write>
 8003b4a:	222e      	movs	r2, #46	; 0x2e
 8003b4c:	2100      	movs	r1, #0
 8003b4e:	2078      	movs	r0, #120	; 0x78
 8003b50:	f000 f9de 	bl	8003f10 <ssd1306_I2C_Write>
 8003b54:	2000      	movs	r0, #0
 8003b56:	f000 f843 	bl	8003be0 <SSD1306_Fill>
 8003b5a:	f000 f813 	bl	8003b84 <SSD1306_UpdateScreen>
 8003b5e:	4b08      	ldr	r3, [pc, #32]	; (8003b80 <SSD1306_Init+0x184>)
 8003b60:	2200      	movs	r2, #0
 8003b62:	801a      	strh	r2, [r3, #0]
 8003b64:	4b06      	ldr	r3, [pc, #24]	; (8003b80 <SSD1306_Init+0x184>)
 8003b66:	2200      	movs	r2, #0
 8003b68:	805a      	strh	r2, [r3, #2]
 8003b6a:	4b05      	ldr	r3, [pc, #20]	; (8003b80 <SSD1306_Init+0x184>)
 8003b6c:	2201      	movs	r2, #1
 8003b6e:	715a      	strb	r2, [r3, #5]
 8003b70:	2301      	movs	r3, #1
 8003b72:	4618      	mov	r0, r3
 8003b74:	3708      	adds	r7, #8
 8003b76:	46bd      	mov	sp, r7
 8003b78:	bd80      	pop	{r7, pc}
 8003b7a:	bf00      	nop
 8003b7c:	200004a4 	.word	0x200004a4
 8003b80:	20000440 	.word	0x20000440

08003b84 <SSD1306_UpdateScreen>:
 8003b84:	b580      	push	{r7, lr}
 8003b86:	b082      	sub	sp, #8
 8003b88:	af00      	add	r7, sp, #0
 8003b8a:	2300      	movs	r3, #0
 8003b8c:	71fb      	strb	r3, [r7, #7]
 8003b8e:	e01d      	b.n	8003bcc <SSD1306_UpdateScreen+0x48>
 8003b90:	79fb      	ldrb	r3, [r7, #7]
 8003b92:	3b50      	subs	r3, #80	; 0x50
 8003b94:	b2db      	uxtb	r3, r3
 8003b96:	461a      	mov	r2, r3
 8003b98:	2100      	movs	r1, #0
 8003b9a:	2078      	movs	r0, #120	; 0x78
 8003b9c:	f000 f9b8 	bl	8003f10 <ssd1306_I2C_Write>
 8003ba0:	2200      	movs	r2, #0
 8003ba2:	2100      	movs	r1, #0
 8003ba4:	2078      	movs	r0, #120	; 0x78
 8003ba6:	f000 f9b3 	bl	8003f10 <ssd1306_I2C_Write>
 8003baa:	2210      	movs	r2, #16
 8003bac:	2100      	movs	r1, #0
 8003bae:	2078      	movs	r0, #120	; 0x78
 8003bb0:	f000 f9ae 	bl	8003f10 <ssd1306_I2C_Write>
 8003bb4:	79fb      	ldrb	r3, [r7, #7]
 8003bb6:	01db      	lsls	r3, r3, #7
 8003bb8:	4a08      	ldr	r2, [pc, #32]	; (8003bdc <SSD1306_UpdateScreen+0x58>)
 8003bba:	441a      	add	r2, r3
 8003bbc:	2380      	movs	r3, #128	; 0x80
 8003bbe:	2140      	movs	r1, #64	; 0x40
 8003bc0:	2078      	movs	r0, #120	; 0x78
 8003bc2:	f000 f95d 	bl	8003e80 <ssd1306_I2C_WriteMulti>
 8003bc6:	79fb      	ldrb	r3, [r7, #7]
 8003bc8:	3301      	adds	r3, #1
 8003bca:	71fb      	strb	r3, [r7, #7]
 8003bcc:	79fb      	ldrb	r3, [r7, #7]
 8003bce:	2b07      	cmp	r3, #7
 8003bd0:	d9de      	bls.n	8003b90 <SSD1306_UpdateScreen+0xc>
 8003bd2:	bf00      	nop
 8003bd4:	3708      	adds	r7, #8
 8003bd6:	46bd      	mov	sp, r7
 8003bd8:	bd80      	pop	{r7, pc}
 8003bda:	bf00      	nop
 8003bdc:	20000040 	.word	0x20000040

08003be0 <SSD1306_Fill>:
 8003be0:	b580      	push	{r7, lr}
 8003be2:	b082      	sub	sp, #8
 8003be4:	af00      	add	r7, sp, #0
 8003be6:	4603      	mov	r3, r0
 8003be8:	71fb      	strb	r3, [r7, #7]
 8003bea:	79fb      	ldrb	r3, [r7, #7]
 8003bec:	2b00      	cmp	r3, #0
 8003bee:	d101      	bne.n	8003bf4 <SSD1306_Fill+0x14>
 8003bf0:	2300      	movs	r3, #0
 8003bf2:	e000      	b.n	8003bf6 <SSD1306_Fill+0x16>
 8003bf4:	23ff      	movs	r3, #255	; 0xff
 8003bf6:	f44f 6280 	mov.w	r2, #1024	; 0x400
 8003bfa:	4619      	mov	r1, r3
 8003bfc:	4803      	ldr	r0, [pc, #12]	; (8003c0c <SSD1306_Fill+0x2c>)
 8003bfe:	f000 fa31 	bl	8004064 <memset>
 8003c02:	bf00      	nop
 8003c04:	3708      	adds	r7, #8
 8003c06:	46bd      	mov	sp, r7
 8003c08:	bd80      	pop	{r7, pc}
 8003c0a:	bf00      	nop
 8003c0c:	20000040 	.word	0x20000040

08003c10 <SSD1306_DrawPixel>:
 8003c10:	b480      	push	{r7}
 8003c12:	b083      	sub	sp, #12
 8003c14:	af00      	add	r7, sp, #0
 8003c16:	4603      	mov	r3, r0
 8003c18:	80fb      	strh	r3, [r7, #6]
 8003c1a:	460b      	mov	r3, r1
 8003c1c:	80bb      	strh	r3, [r7, #4]
 8003c1e:	4613      	mov	r3, r2
 8003c20:	70fb      	strb	r3, [r7, #3]
 8003c22:	88fb      	ldrh	r3, [r7, #6]
 8003c24:	2b7f      	cmp	r3, #127	; 0x7f
 8003c26:	d848      	bhi.n	8003cba <SSD1306_DrawPixel+0xaa>
 8003c28:	88bb      	ldrh	r3, [r7, #4]
 8003c2a:	2b3f      	cmp	r3, #63	; 0x3f
 8003c2c:	d845      	bhi.n	8003cba <SSD1306_DrawPixel+0xaa>
 8003c2e:	4b26      	ldr	r3, [pc, #152]	; (8003cc8 <SSD1306_DrawPixel+0xb8>)
 8003c30:	791b      	ldrb	r3, [r3, #4]
 8003c32:	2b00      	cmp	r3, #0
 8003c34:	d006      	beq.n	8003c44 <SSD1306_DrawPixel+0x34>
 8003c36:	78fb      	ldrb	r3, [r7, #3]
 8003c38:	2b00      	cmp	r3, #0
 8003c3a:	bf0c      	ite	eq
 8003c3c:	2301      	moveq	r3, #1
 8003c3e:	2300      	movne	r3, #0
 8003c40:	b2db      	uxtb	r3, r3
 8003c42:	70fb      	strb	r3, [r7, #3]
 8003c44:	78fb      	ldrb	r3, [r7, #3]
 8003c46:	2b01      	cmp	r3, #1
 8003c48:	d11a      	bne.n	8003c80 <SSD1306_DrawPixel+0x70>
 8003c4a:	88fa      	ldrh	r2, [r7, #6]
 8003c4c:	88bb      	ldrh	r3, [r7, #4]
 8003c4e:	08db      	lsrs	r3, r3, #3
 8003c50:	b298      	uxth	r0, r3
 8003c52:	4603      	mov	r3, r0
 8003c54:	01db      	lsls	r3, r3, #7
 8003c56:	4413      	add	r3, r2
 8003c58:	4a1c      	ldr	r2, [pc, #112]	; (8003ccc <SSD1306_DrawPixel+0xbc>)
 8003c5a:	5cd3      	ldrb	r3, [r2, r3]
 8003c5c:	b25a      	sxtb	r2, r3
 8003c5e:	88bb      	ldrh	r3, [r7, #4]
 8003c60:	f003 0307 	and.w	r3, r3, #7
 8003c64:	2101      	movs	r1, #1
 8003c66:	fa01 f303 	lsl.w	r3, r1, r3
 8003c6a:	b25b      	sxtb	r3, r3
 8003c6c:	4313      	orrs	r3, r2
 8003c6e:	b259      	sxtb	r1, r3
 8003c70:	88fa      	ldrh	r2, [r7, #6]
 8003c72:	4603      	mov	r3, r0
 8003c74:	01db      	lsls	r3, r3, #7
 8003c76:	4413      	add	r3, r2
 8003c78:	b2c9      	uxtb	r1, r1
 8003c7a:	4a14      	ldr	r2, [pc, #80]	; (8003ccc <SSD1306_DrawPixel+0xbc>)
 8003c7c:	54d1      	strb	r1, [r2, r3]
 8003c7e:	e01d      	b.n	8003cbc <SSD1306_DrawPixel+0xac>
 8003c80:	88fa      	ldrh	r2, [r7, #6]
 8003c82:	88bb      	ldrh	r3, [r7, #4]
 8003c84:	08db      	lsrs	r3, r3, #3
 8003c86:	b298      	uxth	r0, r3
 8003c88:	4603      	mov	r3, r0
 8003c8a:	01db      	lsls	r3, r3, #7
 8003c8c:	4413      	add	r3, r2
 8003c8e:	4a0f      	ldr	r2, [pc, #60]	; (8003ccc <SSD1306_DrawPixel+0xbc>)
 8003c90:	5cd3      	ldrb	r3, [r2, r3]
 8003c92:	b25a      	sxtb	r2, r3
 8003c94:	88bb      	ldrh	r3, [r7, #4]
 8003c96:	f003 0307 	and.w	r3, r3, #7
 8003c9a:	2101      	movs	r1, #1
 8003c9c:	fa01 f303 	lsl.w	r3, r1, r3
 8003ca0:	b25b      	sxtb	r3, r3
 8003ca2:	43db      	mvns	r3, r3
 8003ca4:	b25b      	sxtb	r3, r3
 8003ca6:	4013      	ands	r3, r2
 8003ca8:	b259      	sxtb	r1, r3
 8003caa:	88fa      	ldrh	r2, [r7, #6]
 8003cac:	4603      	mov	r3, r0
 8003cae:	01db      	lsls	r3, r3, #7
 8003cb0:	4413      	add	r3, r2
 8003cb2:	b2c9      	uxtb	r1, r1
 8003cb4:	4a05      	ldr	r2, [pc, #20]	; (8003ccc <SSD1306_DrawPixel+0xbc>)
 8003cb6:	54d1      	strb	r1, [r2, r3]
 8003cb8:	e000      	b.n	8003cbc <SSD1306_DrawPixel+0xac>
 8003cba:	bf00      	nop
 8003cbc:	370c      	adds	r7, #12
 8003cbe:	46bd      	mov	sp, r7
 8003cc0:	f85d 7b04 	ldr.w	r7, [sp], #4
 8003cc4:	4770      	bx	lr
 8003cc6:	bf00      	nop
 8003cc8:	20000440 	.word	0x20000440
 8003ccc:	20000040 	.word	0x20000040

08003cd0 <SSD1306_GotoXY>:
 8003cd0:	b480      	push	{r7}
 8003cd2:	b083      	sub	sp, #12
 8003cd4:	af00      	add	r7, sp, #0
 8003cd6:	4603      	mov	r3, r0
 8003cd8:	460a      	mov	r2, r1
 8003cda:	80fb      	strh	r3, [r7, #6]
 8003cdc:	4613      	mov	r3, r2
 8003cde:	80bb      	strh	r3, [r7, #4]
 8003ce0:	4a05      	ldr	r2, [pc, #20]	; (8003cf8 <SSD1306_GotoXY+0x28>)
 8003ce2:	88fb      	ldrh	r3, [r7, #6]
 8003ce4:	8013      	strh	r3, [r2, #0]
 8003ce6:	4a04      	ldr	r2, [pc, #16]	; (8003cf8 <SSD1306_GotoXY+0x28>)
 8003ce8:	88bb      	ldrh	r3, [r7, #4]
 8003cea:	8053      	strh	r3, [r2, #2]
 8003cec:	bf00      	nop
 8003cee:	370c      	adds	r7, #12
 8003cf0:	46bd      	mov	sp, r7
 8003cf2:	f85d 7b04 	ldr.w	r7, [sp], #4
 8003cf6:	4770      	bx	lr
 8003cf8:	20000440 	.word	0x20000440

08003cfc <SSD1306_Putc>:
 8003cfc:	b580      	push	{r7, lr}
 8003cfe:	b086      	sub	sp, #24
 8003d00:	af00      	add	r7, sp, #0
 8003d02:	4603      	mov	r3, r0
 8003d04:	6039      	str	r1, [r7, #0]
 8003d06:	71fb      	strb	r3, [r7, #7]
 8003d08:	4613      	mov	r3, r2
 8003d0a:	71bb      	strb	r3, [r7, #6]
 8003d0c:	4b3a      	ldr	r3, [pc, #232]	; (8003df8 <SSD1306_Putc+0xfc>)
 8003d0e:	881b      	ldrh	r3, [r3, #0]
 8003d10:	461a      	mov	r2, r3
 8003d12:	683b      	ldr	r3, [r7, #0]
 8003d14:	781b      	ldrb	r3, [r3, #0]
 8003d16:	4413      	add	r3, r2
 8003d18:	2b7f      	cmp	r3, #127	; 0x7f
 8003d1a:	dc07      	bgt.n	8003d2c <SSD1306_Putc+0x30>
 8003d1c:	4b36      	ldr	r3, [pc, #216]	; (8003df8 <SSD1306_Putc+0xfc>)
 8003d1e:	885b      	ldrh	r3, [r3, #2]
 8003d20:	461a      	mov	r2, r3
 8003d22:	683b      	ldr	r3, [r7, #0]
 8003d24:	785b      	ldrb	r3, [r3, #1]
 8003d26:	4413      	add	r3, r2
 8003d28:	2b3f      	cmp	r3, #63	; 0x3f
 8003d2a:	dd01      	ble.n	8003d30 <SSD1306_Putc+0x34>
 8003d2c:	2300      	movs	r3, #0
 8003d2e:	e05e      	b.n	8003dee <SSD1306_Putc+0xf2>
 8003d30:	2300      	movs	r3, #0
 8003d32:	617b      	str	r3, [r7, #20]
 8003d34:	e04b      	b.n	8003dce <SSD1306_Putc+0xd2>
 8003d36:	683b      	ldr	r3, [r7, #0]
 8003d38:	685a      	ldr	r2, [r3, #4]
 8003d3a:	79fb      	ldrb	r3, [r7, #7]
 8003d3c:	3b20      	subs	r3, #32
 8003d3e:	6839      	ldr	r1, [r7, #0]
 8003d40:	7849      	ldrb	r1, [r1, #1]
 8003d42:	fb01 f303 	mul.w	r3, r1, r3
 8003d46:	4619      	mov	r1, r3
 8003d48:	697b      	ldr	r3, [r7, #20]
 8003d4a:	440b      	add	r3, r1
 8003d4c:	005b      	lsls	r3, r3, #1
 8003d4e:	4413      	add	r3, r2
 8003d50:	881b      	ldrh	r3, [r3, #0]
 8003d52:	60fb      	str	r3, [r7, #12]
 8003d54:	2300      	movs	r3, #0
 8003d56:	613b      	str	r3, [r7, #16]
 8003d58:	e030      	b.n	8003dbc <SSD1306_Putc+0xc0>
 8003d5a:	68fa      	ldr	r2, [r7, #12]
 8003d5c:	693b      	ldr	r3, [r7, #16]
 8003d5e:	fa02 f303 	lsl.w	r3, r2, r3
 8003d62:	f403 4300 	and.w	r3, r3, #32768	; 0x8000
 8003d66:	2b00      	cmp	r3, #0
 8003d68:	d010      	beq.n	8003d8c <SSD1306_Putc+0x90>
 8003d6a:	4b23      	ldr	r3, [pc, #140]	; (8003df8 <SSD1306_Putc+0xfc>)
 8003d6c:	881a      	ldrh	r2, [r3, #0]
 8003d6e:	693b      	ldr	r3, [r7, #16]
 8003d70:	b29b      	uxth	r3, r3
 8003d72:	4413      	add	r3, r2
 8003d74:	b298      	uxth	r0, r3
 8003d76:	4b20      	ldr	r3, [pc, #128]	; (8003df8 <SSD1306_Putc+0xfc>)
 8003d78:	885a      	ldrh	r2, [r3, #2]
 8003d7a:	697b      	ldr	r3, [r7, #20]
 8003d7c:	b29b      	uxth	r3, r3
 8003d7e:	4413      	add	r3, r2
 8003d80:	b29b      	uxth	r3, r3
 8003d82:	79ba      	ldrb	r2, [r7, #6]
 8003d84:	4619      	mov	r1, r3
 8003d86:	f7ff ff43 	bl	8003c10 <SSD1306_DrawPixel>
 8003d8a:	e014      	b.n	8003db6 <SSD1306_Putc+0xba>
 8003d8c:	4b1a      	ldr	r3, [pc, #104]	; (8003df8 <SSD1306_Putc+0xfc>)
 8003d8e:	881a      	ldrh	r2, [r3, #0]
 8003d90:	693b      	ldr	r3, [r7, #16]
 8003d92:	b29b      	uxth	r3, r3
 8003d94:	4413      	add	r3, r2
 8003d96:	b298      	uxth	r0, r3
 8003d98:	4b17      	ldr	r3, [pc, #92]	; (8003df8 <SSD1306_Putc+0xfc>)
 8003d9a:	885a      	ldrh	r2, [r3, #2]
 8003d9c:	697b      	ldr	r3, [r7, #20]
 8003d9e:	b29b      	uxth	r3, r3
 8003da0:	4413      	add	r3, r2
 8003da2:	b299      	uxth	r1, r3
 8003da4:	79bb      	ldrb	r3, [r7, #6]
 8003da6:	2b00      	cmp	r3, #0
 8003da8:	bf0c      	ite	eq
 8003daa:	2301      	moveq	r3, #1
 8003dac:	2300      	movne	r3, #0
 8003dae:	b2db      	uxtb	r3, r3
 8003db0:	461a      	mov	r2, r3
 8003db2:	f7ff ff2d 	bl	8003c10 <SSD1306_DrawPixel>
 8003db6:	693b      	ldr	r3, [r7, #16]
 8003db8:	3301      	adds	r3, #1
 8003dba:	613b      	str	r3, [r7, #16]
 8003dbc:	683b      	ldr	r3, [r7, #0]
 8003dbe:	781b      	ldrb	r3, [r3, #0]
 8003dc0:	461a      	mov	r2, r3
 8003dc2:	693b      	ldr	r3, [r7, #16]
 8003dc4:	4293      	cmp	r3, r2
 8003dc6:	d3c8      	bcc.n	8003d5a <SSD1306_Putc+0x5e>
 8003dc8:	697b      	ldr	r3, [r7, #20]
 8003dca:	3301      	adds	r3, #1
 8003dcc:	617b      	str	r3, [r7, #20]
 8003dce:	683b      	ldr	r3, [r7, #0]
 8003dd0:	785b      	ldrb	r3, [r3, #1]
 8003dd2:	461a      	mov	r2, r3
 8003dd4:	697b      	ldr	r3, [r7, #20]
 8003dd6:	4293      	cmp	r3, r2
 8003dd8:	d3ad      	bcc.n	8003d36 <SSD1306_Putc+0x3a>
 8003dda:	4b07      	ldr	r3, [pc, #28]	; (8003df8 <SSD1306_Putc+0xfc>)
 8003ddc:	881a      	ldrh	r2, [r3, #0]
 8003dde:	683b      	ldr	r3, [r7, #0]
 8003de0:	781b      	ldrb	r3, [r3, #0]
 8003de2:	b29b      	uxth	r3, r3
 8003de4:	4413      	add	r3, r2
 8003de6:	b29a      	uxth	r2, r3
 8003de8:	4b03      	ldr	r3, [pc, #12]	; (8003df8 <SSD1306_Putc+0xfc>)
 8003dea:	801a      	strh	r2, [r3, #0]
 8003dec:	79fb      	ldrb	r3, [r7, #7]
 8003dee:	4618      	mov	r0, r3
 8003df0:	3718      	adds	r7, #24
 8003df2:	46bd      	mov	sp, r7
 8003df4:	bd80      	pop	{r7, pc}
 8003df6:	bf00      	nop
 8003df8:	20000440 	.word	0x20000440

08003dfc <SSD1306_Puts>:
 8003dfc:	b580      	push	{r7, lr}
 8003dfe:	b084      	sub	sp, #16
 8003e00:	af00      	add	r7, sp, #0
 8003e02:	60f8      	str	r0, [r7, #12]
 8003e04:	60b9      	str	r1, [r7, #8]
 8003e06:	4613      	mov	r3, r2
 8003e08:	71fb      	strb	r3, [r7, #7]
 8003e0a:	e012      	b.n	8003e32 <SSD1306_Puts+0x36>
 8003e0c:	68fb      	ldr	r3, [r7, #12]
 8003e0e:	781b      	ldrb	r3, [r3, #0]
 8003e10:	79fa      	ldrb	r2, [r7, #7]
 8003e12:	68b9      	ldr	r1, [r7, #8]
 8003e14:	4618      	mov	r0, r3
 8003e16:	f7ff ff71 	bl	8003cfc <SSD1306_Putc>
 8003e1a:	4603      	mov	r3, r0
 8003e1c:	461a      	mov	r2, r3
 8003e1e:	68fb      	ldr	r3, [r7, #12]
 8003e20:	781b      	ldrb	r3, [r3, #0]
 8003e22:	429a      	cmp	r2, r3
 8003e24:	d002      	beq.n	8003e2c <SSD1306_Puts+0x30>
 8003e26:	68fb      	ldr	r3, [r7, #12]
 8003e28:	781b      	ldrb	r3, [r3, #0]
 8003e2a:	e008      	b.n	8003e3e <SSD1306_Puts+0x42>
 8003e2c:	68fb      	ldr	r3, [r7, #12]
 8003e2e:	3301      	adds	r3, #1
 8003e30:	60fb      	str	r3, [r7, #12]
 8003e32:	68fb      	ldr	r3, [r7, #12]
 8003e34:	781b      	ldrb	r3, [r3, #0]
 8003e36:	2b00      	cmp	r3, #0
 8003e38:	d1e8      	bne.n	8003e0c <SSD1306_Puts+0x10>
 8003e3a:	68fb      	ldr	r3, [r7, #12]
 8003e3c:	781b      	ldrb	r3, [r3, #0]
 8003e3e:	4618      	mov	r0, r3
 8003e40:	3710      	adds	r7, #16
 8003e42:	46bd      	mov	sp, r7
 8003e44:	bd80      	pop	{r7, pc}

08003e46 <SSD1306_Clear>:
 8003e46:	b580      	push	{r7, lr}
 8003e48:	af00      	add	r7, sp, #0
 8003e4a:	2000      	movs	r0, #0
 8003e4c:	f7ff fec8 	bl	8003be0 <SSD1306_Fill>
 8003e50:	f7ff fe98 	bl	8003b84 <SSD1306_UpdateScreen>
 8003e54:	bf00      	nop
 8003e56:	bd80      	pop	{r7, pc}

08003e58 <ssd1306_I2C_Init>:
 8003e58:	b480      	push	{r7}
 8003e5a:	b083      	sub	sp, #12
 8003e5c:	af00      	add	r7, sp, #0
 8003e5e:	4b07      	ldr	r3, [pc, #28]	; (8003e7c <ssd1306_I2C_Init+0x24>)
 8003e60:	607b      	str	r3, [r7, #4]
 8003e62:	e002      	b.n	8003e6a <ssd1306_I2C_Init+0x12>
 8003e64:	687b      	ldr	r3, [r7, #4]
 8003e66:	3b01      	subs	r3, #1
 8003e68:	607b      	str	r3, [r7, #4]
 8003e6a:	687b      	ldr	r3, [r7, #4]
 8003e6c:	2b00      	cmp	r3, #0
 8003e6e:	d1f9      	bne.n	8003e64 <ssd1306_I2C_Init+0xc>
 8003e70:	bf00      	nop
 8003e72:	370c      	adds	r7, #12
 8003e74:	46bd      	mov	sp, r7
 8003e76:	f85d 7b04 	ldr.w	r7, [sp], #4
 8003e7a:	4770      	bx	lr
 8003e7c:	0003d090 	.word	0x0003d090

08003e80 <ssd1306_I2C_WriteMulti>:
 8003e80:	b590      	push	{r4, r7, lr}
 8003e82:	b0c7      	sub	sp, #284	; 0x11c
 8003e84:	af02      	add	r7, sp, #8
 8003e86:	4604      	mov	r4, r0
 8003e88:	4608      	mov	r0, r1
 8003e8a:	4639      	mov	r1, r7
 8003e8c:	600a      	str	r2, [r1, #0]
 8003e8e:	4619      	mov	r1, r3
 8003e90:	1dfb      	adds	r3, r7, #7
 8003e92:	4622      	mov	r2, r4
 8003e94:	701a      	strb	r2, [r3, #0]
 8003e96:	1dbb      	adds	r3, r7, #6
 8003e98:	4602      	mov	r2, r0
 8003e9a:	701a      	strb	r2, [r3, #0]
 8003e9c:	1d3b      	adds	r3, r7, #4
 8003e9e:	460a      	mov	r2, r1
 8003ea0:	801a      	strh	r2, [r3, #0]
 8003ea2:	f107 030c 	add.w	r3, r7, #12
 8003ea6:	1dba      	adds	r2, r7, #6
 8003ea8:	7812      	ldrb	r2, [r2, #0]
 8003eaa:	701a      	strb	r2, [r3, #0]
 8003eac:	2300      	movs	r3, #0
 8003eae:	f887 310f 	strb.w	r3, [r7, #271]	; 0x10f
 8003eb2:	e010      	b.n	8003ed6 <ssd1306_I2C_WriteMulti+0x56>
 8003eb4:	f897 310f 	ldrb.w	r3, [r7, #271]	; 0x10f
 8003eb8:	463a      	mov	r2, r7
 8003eba:	6812      	ldr	r2, [r2, #0]
 8003ebc:	441a      	add	r2, r3
 8003ebe:	f897 310f 	ldrb.w	r3, [r7, #271]	; 0x10f
 8003ec2:	3301      	adds	r3, #1
 8003ec4:	7811      	ldrb	r1, [r2, #0]
 8003ec6:	f107 020c 	add.w	r2, r7, #12
 8003eca:	54d1      	strb	r1, [r2, r3]
 8003ecc:	f897 310f 	ldrb.w	r3, [r7, #271]	; 0x10f
 8003ed0:	3301      	adds	r3, #1
 8003ed2:	f887 310f 	strb.w	r3, [r7, #271]	; 0x10f
 8003ed6:	f897 310f 	ldrb.w	r3, [r7, #271]	; 0x10f
 8003eda:	b29b      	uxth	r3, r3
 8003edc:	1d3a      	adds	r2, r7, #4
 8003ede:	8812      	ldrh	r2, [r2, #0]
 8003ee0:	429a      	cmp	r2, r3
 8003ee2:	d8e7      	bhi.n	8003eb4 <ssd1306_I2C_WriteMulti+0x34>
 8003ee4:	1dfb      	adds	r3, r7, #7
 8003ee6:	781b      	ldrb	r3, [r3, #0]
 8003ee8:	b299      	uxth	r1, r3
 8003eea:	1d3b      	adds	r3, r7, #4
 8003eec:	881b      	ldrh	r3, [r3, #0]
 8003eee:	3301      	adds	r3, #1
 8003ef0:	b298      	uxth	r0, r3
 8003ef2:	f107 020c 	add.w	r2, r7, #12
 8003ef6:	230a      	movs	r3, #10
 8003ef8:	9300      	str	r3, [sp, #0]
 8003efa:	4603      	mov	r3, r0
 8003efc:	4803      	ldr	r0, [pc, #12]	; (8003f0c <ssd1306_I2C_WriteMulti+0x8c>)
 8003efe:	f7fc feef 	bl	8000ce0 <HAL_I2C_Master_Transmit>
 8003f02:	bf00      	nop
 8003f04:	f507 778a 	add.w	r7, r7, #276	; 0x114
 8003f08:	46bd      	mov	sp, r7
 8003f0a:	bd90      	pop	{r4, r7, pc}
 8003f0c:	200004a4 	.word	0x200004a4

08003f10 <ssd1306_I2C_Write>:
 8003f10:	b580      	push	{r7, lr}
 8003f12:	b086      	sub	sp, #24
 8003f14:	af02      	add	r7, sp, #8
 8003f16:	4603      	mov	r3, r0
 8003f18:	71fb      	strb	r3, [r7, #7]
 8003f1a:	460b      	mov	r3, r1
 8003f1c:	71bb      	strb	r3, [r7, #6]
 8003f1e:	4613      	mov	r3, r2
 8003f20:	717b      	strb	r3, [r7, #5]
 8003f22:	79bb      	ldrb	r3, [r7, #6]
 8003f24:	733b      	strb	r3, [r7, #12]
 8003f26:	797b      	ldrb	r3, [r7, #5]
 8003f28:	737b      	strb	r3, [r7, #13]
 8003f2a:	79fb      	ldrb	r3, [r7, #7]
 8003f2c:	b299      	uxth	r1, r3
 8003f2e:	f107 020c 	add.w	r2, r7, #12
 8003f32:	230a      	movs	r3, #10
 8003f34:	9300      	str	r3, [sp, #0]
 8003f36:	2302      	movs	r3, #2
 8003f38:	4803      	ldr	r0, [pc, #12]	; (8003f48 <ssd1306_I2C_Write+0x38>)
 8003f3a:	f7fc fed1 	bl	8000ce0 <HAL_I2C_Master_Transmit>
 8003f3e:	bf00      	nop
 8003f40:	3710      	adds	r7, #16
 8003f42:	46bd      	mov	sp, r7
 8003f44:	bd80      	pop	{r7, pc}
 8003f46:	bf00      	nop
 8003f48:	200004a4 	.word	0x200004a4

08003f4c <SysTick_Handler>:
 8003f4c:	b580      	push	{r7, lr}
 8003f4e:	af00      	add	r7, sp, #0
 8003f50:	f7fc fb0e 	bl	8000570 <HAL_IncTick>
 8003f54:	f7fc fc33 	bl	80007be <HAL_SYSTICK_IRQHandler>
 8003f58:	bf00      	nop
 8003f5a:	bd80      	pop	{r7, pc}

08003f5c <SystemInit>:
 8003f5c:	b480      	push	{r7}
 8003f5e:	af00      	add	r7, sp, #0
 8003f60:	4b16      	ldr	r3, [pc, #88]	; (8003fbc <SystemInit+0x60>)
 8003f62:	f8d3 3088 	ldr.w	r3, [r3, #136]	; 0x88
 8003f66:	4a15      	ldr	r2, [pc, #84]	; (8003fbc <SystemInit+0x60>)
 8003f68:	f443 0370 	orr.w	r3, r3, #15728640	; 0xf00000
 8003f6c:	f8c2 3088 	str.w	r3, [r2, #136]	; 0x88
 8003f70:	4b13      	ldr	r3, [pc, #76]	; (8003fc0 <SystemInit+0x64>)
 8003f72:	681b      	ldr	r3, [r3, #0]
 8003f74:	4a12      	ldr	r2, [pc, #72]	; (8003fc0 <SystemInit+0x64>)
 8003f76:	f043 0301 	orr.w	r3, r3, #1
 8003f7a:	6013      	str	r3, [r2, #0]
 8003f7c:	4b10      	ldr	r3, [pc, #64]	; (8003fc0 <SystemInit+0x64>)
 8003f7e:	2200      	movs	r2, #0
 8003f80:	609a      	str	r2, [r3, #8]
 8003f82:	4b0f      	ldr	r3, [pc, #60]	; (8003fc0 <SystemInit+0x64>)
 8003f84:	681b      	ldr	r3, [r3, #0]
 8003f86:	4a0e      	ldr	r2, [pc, #56]	; (8003fc0 <SystemInit+0x64>)
 8003f88:	f023 7384 	bic.w	r3, r3, #17301504	; 0x1080000
 8003f8c:	f423 3380 	bic.w	r3, r3, #65536	; 0x10000
 8003f90:	6013      	str	r3, [r2, #0]
 8003f92:	4b0b      	ldr	r3, [pc, #44]	; (8003fc0 <SystemInit+0x64>)
 8003f94:	4a0b      	ldr	r2, [pc, #44]	; (8003fc4 <SystemInit+0x68>)
 8003f96:	605a      	str	r2, [r3, #4]
 8003f98:	4b09      	ldr	r3, [pc, #36]	; (8003fc0 <SystemInit+0x64>)
 8003f9a:	681b      	ldr	r3, [r3, #0]
 8003f9c:	4a08      	ldr	r2, [pc, #32]	; (8003fc0 <SystemInit+0x64>)
 8003f9e:	f423 2380 	bic.w	r3, r3, #262144	; 0x40000
 8003fa2:	6013      	str	r3, [r2, #0]
 8003fa4:	4b06      	ldr	r3, [pc, #24]	; (8003fc0 <SystemInit+0x64>)
 8003fa6:	2200      	movs	r2, #0
 8003fa8:	60da      	str	r2, [r3, #12]
 8003faa:	4b04      	ldr	r3, [pc, #16]	; (8003fbc <SystemInit+0x60>)
 8003fac:	f04f 6200 	mov.w	r2, #134217728	; 0x8000000
 8003fb0:	609a      	str	r2, [r3, #8]
 8003fb2:	bf00      	nop
 8003fb4:	46bd      	mov	sp, r7
 8003fb6:	f85d 7b04 	ldr.w	r7, [sp], #4
 8003fba:	4770      	bx	lr
 8003fbc:	e000ed00 	.word	0xe000ed00
 8003fc0:	40023800 	.word	0x40023800
 8003fc4:	24003010 	.word	0x24003010

08003fc8 <Reset_Handler>:
 8003fc8:	f8df d034 	ldr.w	sp, [pc, #52]	; 8004000 <LoopFillZerobss+0x14>
 8003fcc:	2100      	movs	r1, #0
 8003fce:	e003      	b.n	8003fd8 <LoopCopyDataInit>

08003fd0 <CopyDataInit>:
 8003fd0:	4b0c      	ldr	r3, [pc, #48]	; (8004004 <LoopFillZerobss+0x18>)
 8003fd2:	585b      	ldr	r3, [r3, r1]
 8003fd4:	5043      	str	r3, [r0, r1]
 8003fd6:	3104      	adds	r1, #4

08003fd8 <LoopCopyDataInit>:
 8003fd8:	480b      	ldr	r0, [pc, #44]	; (8004008 <LoopFillZerobss+0x1c>)
 8003fda:	4b0c      	ldr	r3, [pc, #48]	; (800400c <LoopFillZerobss+0x20>)
 8003fdc:	1842      	adds	r2, r0, r1
 8003fde:	429a      	cmp	r2, r3
 8003fe0:	d3f6      	bcc.n	8003fd0 <CopyDataInit>
 8003fe2:	4a0b      	ldr	r2, [pc, #44]	; (8004010 <LoopFillZerobss+0x24>)
 8003fe4:	e002      	b.n	8003fec <LoopFillZerobss>

08003fe6 <FillZerobss>:
 8003fe6:	2300      	movs	r3, #0
 8003fe8:	f842 3b04 	str.w	r3, [r2], #4

08003fec <LoopFillZerobss>:
 8003fec:	4b09      	ldr	r3, [pc, #36]	; (8004014 <LoopFillZerobss+0x28>)
 8003fee:	429a      	cmp	r2, r3
 8003ff0:	d3f9      	bcc.n	8003fe6 <FillZerobss>
 8003ff2:	f7ff ffb3 	bl	8003f5c <SystemInit>
 8003ff6:	f000 f811 	bl	800401c <__libc_init_array>
 8003ffa:	f7ff fad1 	bl	80035a0 <main>
 8003ffe:	4770      	bx	lr
 8004000:	20020000 	.word	0x20020000
 8004004:	080090fc 	.word	0x080090fc
 8004008:	20000000 	.word	0x20000000
 800400c:	20000024 	.word	0x20000024
 8004010:	20000024 	.word	0x20000024
 8004014:	20000588 	.word	0x20000588

08004018 <ADC_IRQHandler>:
 8004018:	e7fe      	b.n	8004018 <ADC_IRQHandler>
	...

0800401c <__libc_init_array>:
 800401c:	b570      	push	{r4, r5, r6, lr}
 800401e:	4e0d      	ldr	r6, [pc, #52]	; (8004054 <__libc_init_array+0x38>)
 8004020:	4c0d      	ldr	r4, [pc, #52]	; (8004058 <__libc_init_array+0x3c>)
 8004022:	1ba4      	subs	r4, r4, r6
 8004024:	10a4      	asrs	r4, r4, #2
 8004026:	2500      	movs	r5, #0
 8004028:	42a5      	cmp	r5, r4
 800402a:	d109      	bne.n	8004040 <__libc_init_array+0x24>
 800402c:	4e0b      	ldr	r6, [pc, #44]	; (800405c <__libc_init_array+0x40>)
 800402e:	4c0c      	ldr	r4, [pc, #48]	; (8004060 <__libc_init_array+0x44>)
 8004030:	f005 f850 	bl	80090d4 <_init>
 8004034:	1ba4      	subs	r4, r4, r6
 8004036:	10a4      	asrs	r4, r4, #2
 8004038:	2500      	movs	r5, #0
 800403a:	42a5      	cmp	r5, r4
 800403c:	d105      	bne.n	800404a <__libc_init_array+0x2e>
 800403e:	bd70      	pop	{r4, r5, r6, pc}
 8004040:	f856 3025 	ldr.w	r3, [r6, r5, lsl #2]
 8004044:	4798      	blx	r3
 8004046:	3501      	adds	r5, #1
 8004048:	e7ee      	b.n	8004028 <__libc_init_array+0xc>
 800404a:	f856 3025 	ldr.w	r3, [r6, r5, lsl #2]
 800404e:	4798      	blx	r3
 8004050:	3501      	adds	r5, #1
 8004052:	e7f2      	b.n	800403a <__libc_init_array+0x1e>
 8004054:	080090f4 	.word	0x080090f4
 8004058:	080090f4 	.word	0x080090f4
 800405c:	080090f4 	.word	0x080090f4
 8004060:	080090f8 	.word	0x080090f8

08004064 <memset>:
 8004064:	4402      	add	r2, r0
 8004066:	4603      	mov	r3, r0
 8004068:	4293      	cmp	r3, r2
 800406a:	d100      	bne.n	800406e <memset+0xa>
 800406c:	4770      	bx	lr
 800406e:	f803 1b01 	strb.w	r1, [r3], #1
 8004072:	e7f9      	b.n	8004068 <memset+0x4>

08004074 <Font7x10>:
	...
 8004088:	1000 1000 1000 1000 1000 1000 0000 1000     ................
 8004098:	0000 0000 2800 2800 2800 0000 0000 0000     .....(.(.(......
	...
 80040b0:	2400 2400 7c00 2400 4800 7c00 4800 4800     .$.$.|.$.H.|.H.H
 80040c0:	0000 0000 3800 5400 5000 3800 1400 5400     .....8.T.P.8...T
 80040d0:	5400 3800 1000 0000 2000 5400 5800 3000     .T.8..... .T.X.0
 80040e0:	2800 5400 1400 0800 0000 0000 1000 2800     .(.T...........(
 80040f0:	2800 1000 3400 4800 4800 3400 0000 0000     .(...4.H.H.4....
 8004100:	1000 1000 1000 0000 0000 0000 0000 0000     ................
 8004110:	0000 0000 0800 1000 2000 2000 2000 2000     ......... . . . 
 8004120:	2000 2000 1000 0800 2000 1000 0800 0800     . . ..... ......
 8004130:	0800 0800 0800 0800 1000 2000 1000 3800     ........... ...8
 8004140:	1000 2800 0000 0000 0000 0000 0000 0000     ...(............
 8004150:	0000 0000 1000 1000 7c00 1000 1000 0000     .........|......
	...
 8004170:	0000 1000 1000 1000 0000 0000 0000 0000     ................
 8004180:	0000 3800 0000 0000 0000 0000 0000 0000     ...8............
	...
 8004198:	0000 1000 0000 0000 0800 0800 1000 1000     ................
 80041a8:	1000 1000 2000 2000 0000 0000 3800 4400     ..... . .....8.D
 80041b8:	4400 5400 4400 4400 4400 3800 0000 0000     .D.T.D.D.D.8....
 80041c8:	1000 3000 5000 1000 1000 1000 1000 1000     ...0.P..........
 80041d8:	0000 0000 3800 4400 4400 0400 0800 1000     .....8.D.D......
 80041e8:	2000 7c00 0000 0000 3800 4400 0400 1800     . .|.....8.D....
 80041f8:	0400 0400 4400 3800 0000 0000 0800 1800     .....D.8........
 8004208:	2800 2800 4800 7c00 0800 0800 0000 0000     .(.(.H.|........
 8004218:	7c00 4000 4000 7800 0400 0400 4400 3800     .|.@.@.x.....D.8
 8004228:	0000 0000 3800 4400 4000 7800 4400 4400     .....8.D.@.x.D.D
 8004238:	4400 3800 0000 0000 7c00 0400 0800 1000     .D.8.....|......
 8004248:	1000 2000 2000 2000 0000 0000 3800 4400     ... . . .....8.D
 8004258:	4400 3800 4400 4400 4400 3800 0000 0000     .D.8.D.D.D.8....
 8004268:	3800 4400 4400 4400 3c00 0400 4400 3800     .8.D.D.D.<...D.8
	...
 8004280:	1000 0000 0000 0000 0000 1000 0000 0000     ................
 8004290:	0000 0000 0000 1000 0000 0000 0000 1000     ................
 80042a0:	1000 1000 0000 0000 0c00 3000 4000 3000     ...........0.@.0
 80042b0:	0c00 0000 0000 0000 0000 0000 0000 7c00     ...............|
 80042c0:	0000 7c00 0000 0000 0000 0000 0000 0000     ...|............
 80042d0:	6000 1800 0400 1800 6000 0000 0000 0000     .`.......`......
 80042e0:	3800 4400 0400 0800 1000 1000 0000 1000     .8.D............
 80042f0:	0000 0000 3800 4400 4c00 5400 5c00 4000     .....8.D.L.T.\.@
 8004300:	4000 3800 0000 0000 1000 2800 2800 2800     .@.8.......(.(.(
 8004310:	2800 7c00 4400 4400 0000 0000 7800 4400     .(.|.D.D.....x.D
 8004320:	4400 7800 4400 4400 4400 7800 0000 0000     .D.x.D.D.D.x....
 8004330:	3800 4400 4000 4000 4000 4000 4400 3800     .8.D.@.@.@.@.D.8
 8004340:	0000 0000 7000 4800 4400 4400 4400 4400     .....p.H.D.D.D.D
 8004350:	4800 7000 0000 0000 7c00 4000 4000 7c00     .H.p.....|.@.@.|
 8004360:	4000 4000 4000 7c00 0000 0000 7c00 4000     .@.@.@.|.....|.@
 8004370:	4000 7800 4000 4000 4000 4000 0000 0000     .@.x.@.@.@.@....
 8004380:	3800 4400 4000 4000 5c00 4400 4400 3800     .8.D.@.@.\.D.D.8
 8004390:	0000 0000 4400 4400 4400 7c00 4400 4400     .....D.D.D.|.D.D
 80043a0:	4400 4400 0000 0000 3800 1000 1000 1000     .D.D.....8......
 80043b0:	1000 1000 1000 3800 0000 0000 0400 0400     .......8........
 80043c0:	0400 0400 0400 0400 4400 3800 0000 0000     .........D.8....
 80043d0:	4400 4800 5000 6000 5000 4800 4800 4400     .D.H.P.`.P.H.H.D
 80043e0:	0000 0000 4000 4000 4000 4000 4000 4000     .....@.@.@.@.@.@
 80043f0:	4000 7c00 0000 0000 4400 6c00 6c00 5400     .@.|.....D.l.l.T
 8004400:	4400 4400 4400 4400 0000 0000 4400 6400     .D.D.D.D.....D.d
 8004410:	6400 5400 5400 4c00 4c00 4400 0000 0000     .d.T.T.L.L.D....
 8004420:	3800 4400 4400 4400 4400 4400 4400 3800     .8.D.D.D.D.D.D.8
 8004430:	0000 0000 7800 4400 4400 4400 7800 4000     .....x.D.D.D.x.@
 8004440:	4000 4000 0000 0000 3800 4400 4400 4400     .@.@.....8.D.D.D
 8004450:	4400 4400 5400 3800 0400 0000 7800 4400     .D.D.T.8.....x.D
 8004460:	4400 4400 7800 4800 4800 4400 0000 0000     .D.D.x.H.H.D....
 8004470:	3800 4400 4000 3000 0800 0400 4400 3800     .8.D.@.0.....D.8
 8004480:	0000 0000 7c00 1000 1000 1000 1000 1000     .....|..........
 8004490:	1000 1000 0000 0000 4400 4400 4400 4400     .........D.D.D.D
 80044a0:	4400 4400 4400 3800 0000 0000 4400 4400     .D.D.D.8.....D.D
 80044b0:	4400 2800 2800 2800 1000 1000 0000 0000     .D.(.(.(........
 80044c0:	4400 4400 5400 5400 5400 6c00 2800 2800     .D.D.T.T.T.l.(.(
 80044d0:	0000 0000 4400 2800 2800 1000 1000 2800     .....D.(.(.....(
 80044e0:	2800 4400 0000 0000 4400 4400 2800 2800     .(.D.....D.D.(.(
 80044f0:	1000 1000 1000 1000 0000 0000 7c00 0400     .............|..
 8004500:	0800 1000 1000 2000 4000 7c00 0000 0000     ....... .@.|....
 8004510:	1800 1000 1000 1000 1000 1000 1000 1000     ................
 8004520:	1000 1800 2000 2000 1000 1000 1000 1000     ..... . ........
 8004530:	0800 0800 0000 0000 3000 1000 1000 1000     .........0......
 8004540:	1000 1000 1000 1000 1000 3000 1000 2800     ...........0...(
 8004550:	2800 4400 0000 0000 0000 0000 0000 0000     .(.D............
	...
 8004570:	0000 fe00 2000 1000 0000 0000 0000 0000     ..... ..........
	...
 800458c:	3800 4400 3c00 4400 4c00 3400 0000 0000     .8.D.<.D.L.4....
 800459c:	4000 4000 5800 6400 4400 4400 6400 5800     .@.@.X.d.D.D.d.X
	...
 80045b4:	3800 4400 4000 4000 4400 3800 0000 0000     .8.D.@.@.D.8....
 80045c4:	0400 0400 3400 4c00 4400 4400 4c00 3400     .....4.L.D.D.L.4
	...
 80045dc:	3800 4400 7c00 4000 4400 3800 0000 0000     .8.D.|.@.D.8....
 80045ec:	0c00 1000 7c00 1000 1000 1000 1000 1000     .....|..........
	...
 8004604:	3400 4c00 4400 4400 4c00 3400 0400 7800     .4.L.D.D.L.4...x
 8004614:	4000 4000 5800 6400 4400 4400 4400 4400     .@.@.X.d.D.D.D.D
 8004624:	0000 0000 1000 0000 7000 1000 1000 1000     .........p......
 8004634:	1000 1000 0000 0000 1000 0000 7000 1000     .............p..
 8004644:	1000 1000 1000 1000 1000 e000 4000 4000     .............@.@
 8004654:	4800 5000 6000 5000 4800 4400 0000 0000     .H.P.`.P.H.D....
 8004664:	7000 1000 1000 1000 1000 1000 1000 1000     .p..............
	...
 800467c:	7800 5400 5400 5400 5400 5400 0000 0000     .x.T.T.T.T.T....
 800468c:	0000 0000 5800 6400 4400 4400 4400 4400     .....X.d.D.D.D.D
	...
 80046a4:	3800 4400 4400 4400 4400 3800 0000 0000     .8.D.D.D.D.8....
 80046b4:	0000 0000 5800 6400 4400 4400 6400 5800     .....X.d.D.D.d.X
 80046c4:	4000 4000 0000 0000 3400 4c00 4400 4400     .@.@.....4.L.D.D
 80046d4:	4c00 3400 0400 0400 0000 0000 5800 6400     .L.4.........X.d
 80046e4:	4000 4000 4000 4000 0000 0000 0000 0000     .@.@.@.@........
 80046f4:	3800 4400 3000 0800 4400 3800 0000 0000     .8.D.0...D.8....
 8004704:	2000 2000 7800 2000 2000 2000 2000 1800     . . .x. . . . ..
	...
 800471c:	4400 4400 4400 4400 4c00 3400 0000 0000     .D.D.D.D.L.4....
 800472c:	0000 0000 4400 4400 2800 2800 2800 1000     .....D.D.(.(.(..
	...
 8004744:	5400 5400 5400 6c00 2800 2800 0000 0000     .T.T.T.l.(.(....
 8004754:	0000 0000 4400 2800 1000 1000 2800 4400     .....D.(.....(.D
	...
 800476c:	4400 4400 2800 2800 1000 1000 1000 6000     .D.D.(.(.......`
 800477c:	0000 0000 7c00 0800 1000 2000 4000 7c00     .....|..... .@.|
 800478c:	0000 0000 1800 1000 1000 1000 2000 2000     ............. . 
 800479c:	1000 1000 1000 1800 1000 1000 1000 1000     ................
 80047ac:	1000 1000 1000 1000 1000 1000 3000 1000     .............0..
 80047bc:	1000 1000 0800 0800 1000 1000 1000 3000     ...............0
 80047cc:	0000 0000 0000 7400 4c00 0000 0000 0000     .......t.L......
 80047dc:	0000 0000                                   ....

080047e0 <Font11x18>:
	...
 8004804:	0000 0c00 0c00 0c00 0c00 0c00 0c00 0c00     ................
 8004814:	0c00 0c00 0c00 0c00 0000 0c00 0c00 0000     ................
 8004824:	0000 0000 0000 1b00 1b00 1b00 1b00 1b00     ................
	...
 800484c:	0000 1980 1980 1980 1980 7fc0 7fc0 1980     ................
 800485c:	3300 7fc0 7fc0 3300 3300 3300 3300 0000     .3.....3.3.3.3..
 800486c:	0000 0000 0000 1e00 3f00 7580 6580 7400     .........?.u.e.t
 800487c:	3c00 1e00 0700 0580 6580 6580 7580 3f00     .<.......e.e.u.?
 800488c:	1e00 0400 0400 0000 0000 7000 d800 d840     ...........p..@.
 800489c:	d8c0 d980 7300 0600 0c00 1b80 36c0 66c0     .....s.......6.f
 80048ac:	46c0 06c0 0380 0000 0000 0000 0000 1e00     .F..............
 80048bc:	3f00 3300 3300 3300 1e00 0c00 3cc0 66c0     .?.3.3.3.....<.f
 80048cc:	6380 6180 6380 3ec0 1c80 0000 0000 0000     .c.a.c.>........
 80048dc:	0000 0c00 0c00 0c00 0c00 0c00 0000 0000     ................
	...
 8004900:	0080 0100 0300 0600 0600 0400 0c00 0c00     ................
 8004910:	0c00 0c00 0c00 0c00 0400 0600 0600 0300     ................
 8004920:	0100 0080 2000 1000 1800 0c00 0c00 0400     ..... ..........
 8004930:	0600 0600 0600 0600 0600 0600 0400 0c00     ................
 8004940:	0c00 1800 1000 2000 0000 0c00 2d00 3f00     ....... .....-.?
 8004950:	1e00 3300 0000 0000 0000 0000 0000 0000     ...3............
	...
 8004970:	0000 0c00 0c00 0c00 0c00 ffc0 ffc0 0c00     ................
 8004980:	0c00 0c00 0c00 0000 0000 0000 0000 0000     ................
	...
 80049a8:	0000 0c00 0c00 0400 0400 0800 0000 0000     ................
	...
 80049c4:	0000 1e00 1e00 0000 0000 0000 0000 0000     ................
	...
 80049f0:	0000 0c00 0c00 0000 0000 0000 0000 0300     ................
 8004a00:	0300 0300 0600 0600 0600 0600 0c00 0c00     ................
 8004a10:	0c00 0c00 1800 1800 1800 0000 0000 0000     ................
 8004a20:	0000 1e00 3f00 3300 6180 6180 6180 6d80     .....?.3.a.a.a.m
 8004a30:	6d80 6180 6180 6180 3300 3f00 1e00 0000     .m.a.a.a.3.?....
 8004a40:	0000 0000 0000 0600 0e00 1e00 3600 2600     .............6.&
 8004a50:	0600 0600 0600 0600 0600 0600 0600 0600     ................
 8004a60:	0600 0000 0000 0000 0000 1e00 3f00 7380     .............?.s
 8004a70:	6180 6180 0180 0300 0600 0c00 1800 3000     .a.a...........0
 8004a80:	6000 7f80 7f80 0000 0000 0000 0000 1c00     .`..............
 8004a90:	3e00 6300 6300 0300 0e00 0e00 0300 0180     .>.c.c..........
 8004aa0:	0180 6180 7380 3f00 1e00 0000 0000 0000     ...a.s.?........
 8004ab0:	0000 0600 0e00 0e00 1e00 1e00 1600 3600     ...............6
 8004ac0:	3600 6600 7f80 7f80 0600 0600 0600 0000     .6.f............
 8004ad0:	0000 0000 0000 7f00 7f00 6000 6000 6000     ...........`.`.`
 8004ae0:	6e00 7f00 6380 0180 0180 6180 7380 3f00     .n...c.....a.s.?
 8004af0:	1e00 0000 0000 0000 0000 1e00 3f00 3380     .............?.3
 8004b00:	6180 6000 6e00 7f00 7380 6180 6180 6180     .a.`.n...s.a.a.a
 8004b10:	3380 3f00 1e00 0000 0000 0000 0000 7f80     .3.?............
 8004b20:	7f80 0180 0300 0300 0600 0600 0c00 0c00     ................
 8004b30:	0c00 0800 1800 1800 1800 0000 0000 0000     ................
 8004b40:	0000 1e00 3f00 6380 6180 6180 2100 1e00     .....?.c.a.a.!..
 8004b50:	3f00 6180 6180 6180 6180 3f00 1e00 0000     .?.a.a.a.a.?....
 8004b60:	0000 0000 0000 1e00 3f00 7300 6180 6180     .........?.s.a.a
 8004b70:	6180 7380 3f80 1d80 0180 6180 7300 3f00     .a.s.?.....a.s.?
 8004b80:	1e00 0000 0000 0000 0000 0000 0000 0000     ................
 8004b90:	0000 0c00 0c00 0000 0000 0000 0000 0000     ................
 8004ba0:	0000 0c00 0c00 0000 0000 0000 0000 0000     ................
	...
 8004bb8:	0c00 0c00 0000 0000 0000 0000 0000 0c00     ................
 8004bc8:	0c00 0400 0400 0800 0000 0000 0000 0000     ................
 8004bd8:	0080 0380 0e00 3800 6000 3800 0e00 0380     .......8.`.8....
 8004be8:	0080 0000 0000 0000 0000 0000 0000 0000     ................
 8004bf8:	0000 0000 0000 7f80 7f80 0000 0000 7f80     ................
 8004c08:	7f80 0000 0000 0000 0000 0000 0000 0000     ................
	...
 8004c20:	4000 7000 1c00 0700 0180 0700 1c00 7000     .@.p...........p
 8004c30:	4000 0000 0000 0000 0000 0000 0000 1f00     .@..............
 8004c40:	3f80 71c0 60c0 00c0 01c0 0380 0700 0e00     .?.q.`..........
 8004c50:	0c00 0c00 0000 0c00 0c00 0000 0000 0000     ................
 8004c60:	0000 1e00 3f00 3180 7180 6380 6f80 6d80     .....?.1.q.c.o.m
 8004c70:	6d80 6f80 6780 6000 3200 3e00 1c00 0000     .m.o.g.`.2.>....
 8004c80:	0000 0000 0000 0e00 0e00 1b00 1b00 1b00     ................
 8004c90:	1b00 3180 3180 3f80 3f80 3180 60c0 60c0     ...1.1.?.?.1.`.`
 8004ca0:	60c0 0000 0000 0000 0000 7c00 7e00 6300     .`.........|.~.c
 8004cb0:	6300 6300 6300 7e00 7e00 6300 6180 6180     .c.c.c.~.~.c.a.a
 8004cc0:	6380 7f00 7e00 0000 0000 0000 0000 1e00     .c...~..........
 8004cd0:	3f00 3180 6180 6000 6000 6000 6000 6000     .?.1.a.`.`.`.`.`
 8004ce0:	6000 6180 3180 3f00 1e00 0000 0000 0000     .`.a.1.?........
 8004cf0:	0000 7c00 7f00 6300 6380 6180 6180 6180     ...|...c.c.a.a.a
 8004d00:	6180 6180 6180 6300 6300 7e00 7c00 0000     .a.a.a.c.c.~.|..
 8004d10:	0000 0000 0000 7f80 7f80 6000 6000 6000     ...........`.`.`
 8004d20:	6000 7f00 7f00 6000 6000 6000 6000 7f80     .`.....`.`.`.`..
 8004d30:	7f80 0000 0000 0000 0000 7f80 7f80 6000     ...............`
 8004d40:	6000 6000 6000 7f00 7f00 6000 6000 6000     .`.`.`.....`.`.`
 8004d50:	6000 6000 6000 0000 0000 0000 0000 1e00     .`.`.`..........
 8004d60:	3f00 3180 6180 6000 6000 6000 6380 6380     .?.1.a.`.`.`.c.c
 8004d70:	6180 6180 3180 3f80 1e00 0000 0000 0000     .a.a.1.?........
 8004d80:	0000 6180 6180 6180 6180 6180 6180 7f80     ...a.a.a.a.a.a..
 8004d90:	7f80 6180 6180 6180 6180 6180 6180 0000     ...a.a.a.a.a.a..
 8004da0:	0000 0000 0000 3f00 3f00 0c00 0c00 0c00     .......?.?......
 8004db0:	0c00 0c00 0c00 0c00 0c00 0c00 0c00 3f00     ...............?
 8004dc0:	3f00 0000 0000 0000 0000 0180 0180 0180     .?..............
 8004dd0:	0180 0180 0180 0180 0180 0180 6180 6180     .............a.a
 8004de0:	7380 3f00 1e00 0000 0000 0000 0000 60c0     .s.?...........`
 8004df0:	6180 6300 6600 6600 6c00 7800 7c00 6600     .a.c.f.f.l.x.|.f
 8004e00:	6600 6300 6180 6180 60c0 0000 0000 0000     .f.c.a.a.`......
 8004e10:	0000 6000 6000 6000 6000 6000 6000 6000     ...`.`.`.`.`.`.`
 8004e20:	6000 6000 6000 6000 6000 7f80 7f80 0000     .`.`.`.`.`......
 8004e30:	0000 0000 0000 71c0 71c0 7bc0 7ac0 6ac0     .......q.q.{.z.j
 8004e40:	6ac0 6ec0 64c0 60c0 60c0 60c0 60c0 60c0     .j.n.d.`.`.`.`.`
 8004e50:	60c0 0000 0000 0000 0000 7180 7180 7980     .`.........q.q.y
 8004e60:	7980 7980 6d80 6d80 6d80 6580 6780 6780     .y.y.m.m.m.e.g.g
 8004e70:	6780 6380 6380 0000 0000 0000 0000 1e00     .g.c.c..........
 8004e80:	3f00 3300 6180 6180 6180 6180 6180 6180     .?.3.a.a.a.a.a.a
 8004e90:	6180 6180 3300 3f00 1e00 0000 0000 0000     .a.a.3.?........
 8004ea0:	0000 7e00 7f00 6380 6180 6180 6180 6380     ...~...c.a.a.a.c
 8004eb0:	7f00 7e00 6000 6000 6000 6000 6000 0000     ...~.`.`.`.`.`..
 8004ec0:	0000 0000 0000 1e00 3f00 3300 6180 6180     .........?.3.a.a
 8004ed0:	6180 6180 6180 6180 6580 6780 3300 3f80     .a.a.a.a.e.g.3.?
 8004ee0:	1e40 0000 0000 0000 0000 7e00 7f00 6380     @..........~...c
 8004ef0:	6180 6180 6380 7f00 7e00 6600 6300 6300     .a.a.c...~.f.c.c
 8004f00:	6180 6180 60c0 0000 0000 0000 0000 0e00     .a.a.`..........
 8004f10:	1f00 3180 3180 3000 3800 1e00 0700 0380     ...1.1.0.8......
 8004f20:	6180 6180 3180 3f00 1e00 0000 0000 0000     .a.a.1.?........
 8004f30:	0000 ffc0 ffc0 0c00 0c00 0c00 0c00 0c00     ................
 8004f40:	0c00 0c00 0c00 0c00 0c00 0c00 0c00 0000     ................
 8004f50:	0000 0000 0000 6180 6180 6180 6180 6180     .......a.a.a.a.a
 8004f60:	6180 6180 6180 6180 6180 6180 7380 3f00     .a.a.a.a.a.a.s.?
 8004f70:	1e00 0000 0000 0000 0000 60c0 60c0 60c0     ...........`.`.`
 8004f80:	3180 3180 3180 1b00 1b00 1b00 1b00 0e00     .1.1.1..........
 8004f90:	0e00 0e00 0400 0000 0000 0000 0000 c0c0     ................
 8004fa0:	c0c0 c0c0 c0c0 c0c0 ccc0 4c80 4c80 5e80     ...........L.L.^
 8004fb0:	5280 5280 7380 6180 6180 0000 0000 0000     .R.R.s.a.a......
 8004fc0:	0000 c0c0 6080 6180 3300 3b00 1e00 0c00     .....`.a.3.;....
 8004fd0:	0c00 1e00 1f00 3b00 7180 6180 c0c0 0000     .......;.q.a....
 8004fe0:	0000 0000 0000 c0c0 6180 6180 3300 3300     .........a.a.3.3
 8004ff0:	1e00 1e00 0c00 0c00 0c00 0c00 0c00 0c00     ................
 8005000:	0c00 0000 0000 0000 0000 3f80 3f80 0180     ...........?.?..
 8005010:	0300 0300 0600 0c00 0c00 1800 1800 3000     ...............0
 8005020:	6000 7f80 7f80 0000 0000 0000 0f00 0f00     .`..............
 8005030:	0c00 0c00 0c00 0c00 0c00 0c00 0c00 0c00     ................
 8005040:	0c00 0c00 0c00 0c00 0c00 0c00 0f00 0f00     ................
 8005050:	0000 1800 1800 1800 0c00 0c00 0c00 0c00     ................
 8005060:	0600 0600 0600 0600 0300 0300 0300 0000     ................
 8005070:	0000 0000 1e00 1e00 0600 0600 0600 0600     ................
 8005080:	0600 0600 0600 0600 0600 0600 0600 0600     ................
 8005090:	0600 0600 1e00 1e00 0000 0c00 0c00 1e00     ................
 80050a0:	1200 3300 3300 6180 6180 0000 0000 0000     ...3.3.a.a......
	...
 80050dc:	ffe0 0000 0000 3800 1800 0c00 0000 0000     .......8........
	...
 800510c:	0000 1f00 3f80 6180 0180 1f80 3f80 6180     .....?.a.....?.a
 800511c:	6380 7f80 38c0 0000 0000 0000 0000 6000     .c...8.........`
 800512c:	6000 6000 6000 6e00 7f00 7380 6180 6180     .`.`.`.n...s.a.a
 800513c:	6180 6180 7380 7f00 6e00 0000 0000 0000     .a.a.s...n......
	...
 8005154:	0000 1e00 3f00 7380 6180 6000 6000 6180     .....?.s.a.`.`.a
 8005164:	7380 3f00 1e00 0000 0000 0000 0000 0180     .s.?............
 8005174:	0180 0180 0180 1d80 3f80 7380 6180 6180     .........?.s.a.a
 8005184:	6180 6180 7380 3f80 1d80 0000 0000 0000     .a.a.s.?........
	...
 800519c:	0000 1e00 3f00 7300 6180 7f80 7f80 6000     .....?.s.a.....`
 80051ac:	7180 3f00 1e00 0000 0000 0000 0000 07c0     .q.?............
 80051bc:	0fc0 0c00 0c00 7f80 7f80 0c00 0c00 0c00     ................
 80051cc:	0c00 0c00 0c00 0c00 0c00 0000 0000 0000     ................
	...
 80051e4:	1d80 3f80 7380 6180 6180 6180 6180 7380     ...?.s.a.a.a.a.s
 80051f4:	3f80 1d80 0180 6380 7f00 3e00 0000 6000     .?.....c...>...`
 8005204:	6000 6000 6000 6f00 7f80 7180 6180 6180     .`.`.`.o...q.a.a
 8005214:	6180 6180 6180 6180 6180 0000 0000 0000     .a.a.a.a.a......
 8005224:	0000 0600 0600 0000 0000 3e00 3e00 0600     ...........>.>..
 8005234:	0600 0600 0600 0600 0600 0600 0600 0000     ................
 8005244:	0000 0000 0600 0600 0000 0000 3e00 3e00     .............>.>
 8005254:	0600 0600 0600 0600 0600 0600 0600 0600     ................
 8005264:	0600 4600 7e00 3c00 0000 6000 6000 6000     ...F.~.<...`.`.`
 8005274:	6000 6180 6300 6600 6c00 7c00 7600 6300     .`.a.c.f.l.|.v.c
 8005284:	6300 6180 60c0 0000 0000 0000 0000 3e00     .c.a.`.........>
 8005294:	3e00 0600 0600 0600 0600 0600 0600 0600     .>..............
 80052a4:	0600 0600 0600 0600 0600 0000 0000 0000     ................
	...
 80052bc:	0000 dd80 ffc0 cec0 ccc0 ccc0 ccc0 ccc0     ................
 80052cc:	ccc0 ccc0 ccc0 0000 0000 0000 0000 0000     ................
 80052dc:	0000 0000 0000 6f00 7f80 7180 6180 6180     .......o...q.a.a
 80052ec:	6180 6180 6180 6180 6180 0000 0000 0000     .a.a.a.a.a......
	...
 8005304:	0000 1e00 3f00 7380 6180 6180 6180 6180     .....?.s.a.a.a.a
 8005314:	7380 3f00 1e00 0000 0000 0000 0000 0000     .s.?............
 8005324:	0000 0000 6e00 7f00 7380 6180 6180 6180     .....n...s.a.a.a
 8005334:	6180 7380 7f00 6e00 6000 6000 6000 6000     .a.s...n.`.`.`.`
	...
 800534c:	1d80 3f80 7380 6180 6180 6180 6180 7380     ...?.s.a.a.a.a.s
 800535c:	3f80 1d80 0180 0180 0180 0180 0000 0000     .?..............
 800536c:	0000 0000 0000 6700 3f80 3900 3000 3000     .......g.?.9.0.0
 800537c:	3000 3000 3000 3000 3000 0000 0000 0000     .0.0.0.0.0......
	...
 8005394:	0000 1e00 3f80 6180 6000 7f00 3f80 0180     .....?.a.`...?..
 80053a4:	6180 7f00 1e00 0000 0000 0000 0000 0000     .a..............
 80053b4:	0800 1800 1800 7f00 7f00 1800 1800 1800     ................
 80053c4:	1800 1800 1800 1f80 0f80 0000 0000 0000     ................
	...
 80053dc:	0000 6180 6180 6180 6180 6180 6180 6180     ...a.a.a.a.a.a.a
 80053ec:	6380 7f80 3d80 0000 0000 0000 0000 0000     .c...=..........
 80053fc:	0000 0000 0000 60c0 3180 3180 3180 1b00     .......`.1.1.1..
 800540c:	1b00 1b00 0e00 0e00 0600 0000 0000 0000     ................
	...
 8005424:	0000 dd80 dd80 dd80 5500 5500 5500 7700     .........U.U.U.w
 8005434:	7700 2200 2200 0000 0000 0000 0000 0000     .w."."..........
 8005444:	0000 0000 0000 6180 3300 3300 1e00 0c00     .......a.3.3....
 8005454:	0c00 1e00 3300 3300 6180 0000 0000 0000     .....3.3.a......
	...
 800546c:	6180 6180 3180 3300 3300 1b00 1b00 1b00     .a.a.1.3.3......
 800547c:	0e00 0e00 0e00 1c00 7c00 7000 0000 0000     .........|.p....
 800548c:	0000 0000 0000 7fc0 7fc0 0180 0300 0600     ................
 800549c:	0c00 1800 3000 7fc0 7fc0 0000 0000 0000     .....0..........
 80054ac:	0380 0780 0600 0600 0600 0600 0600 0e00     ................
 80054bc:	1c00 1c00 0e00 0600 0600 0600 0600 0600     ................
 80054cc:	0780 0380 0600 0600 0600 0600 0600 0600     ................
 80054dc:	0600 0600 0600 0600 0600 0600 0600 0600     ................
 80054ec:	0600 0600 0600 0600 3800 3c00 0c00 0c00     .........8.<....
 80054fc:	0c00 0c00 0c00 0e00 0700 0700 0e00 0c00     ................
 800550c:	0c00 0c00 0c00 0c00 3c00 3800 0000 0000     .........<.8....
	...
 8005524:	0000 3880 7f80 4700 0000 0000 0000 0000     ...8...G........
	...

0800553c <Font16x26>:
	...
 8005570:	03e0 03e0 03e0 03e0 03e0 03e0 03e0 03e0     ................
 8005580:	03c0 03c0 01c0 01c0 01c0 01c0 01c0 0000     ................
 8005590:	0000 0000 03e0 03e0 03e0 0000 0000 0000     ................
 80055a0:	0000 0000 1e3c 1e3c 1e3c 1e3c 1e3c 1e3c     ....<.<.<.<.<.<.
 80055b0:	1e3c 0000 0000 0000 0000 0000 0000 0000     <...............
	...
 80055d8:	01ce 03ce 03de 039e 039c 079c 3fff 7fff     .............?..
 80055e8:	0738 0f38 0f78 0f78 0e78 ffff ffff 1ef0     8.8.x.x.x.......
 80055f8:	1cf0 1ce0 3ce0 3de0 39e0 0000 0000 0000     .....<.=.9......
 8005608:	0000 0000 03fc 0ffe 1fee 1ee0 1ee0 1ee0     ................
 8005618:	1ee0 1fe0 0fe0 07e0 03f0 01fc 01fe 01fe     ................
 8005628:	01fe 01fe 01fe 01fe 3dfe 3ffc 0ff0 01e0     .........=.?....
 8005638:	01e0 0000 0000 0000 3e03 f707 e78f e78e     .........>......
 8005648:	e39e e3bc e7b8 e7f8 f7f0 3fe0 01c0 03ff     ...........?....
 8005658:	07ff 07f3 0ff3 1ef3 3cf3 38f3 78f3 f07f     .........<.8.x..
 8005668:	e03f 0000 0000 0000 0000 0000 07e0 0ff8     ?...............
 8005678:	0f78 1f78 1f78 1f78 0f78 0ff0 0fe0 1f80     x.x.x.x.x.......
 8005688:	7fc3 fbc3 f3e7 f1f7 f0f7 f0ff f07f f83e     ..............>.
 8005698:	7c7f 3fff 1fef 0000 0000 0000 0000 0000     .|.?............
 80056a8:	03e0 03e0 03e0 03e0 03e0 03c0 01c0 0000     ................
	...
 80056dc:	003f 007c 01f0 01e0 03c0 07c0 0780 0780     ?.|.............
 80056ec:	0f80 0f00 0f00 0f00 0f00 0f00 0f00 0f80     ................
 80056fc:	0780 0780 07c0 03c0 01e0 01f0 007c 003f     ............|.?.
 800570c:	000f 0000 7e00 1f00 07c0 03c0 01e0 01f0     .....~..........
 800571c:	00f0 00f0 00f8 0078 0078 0078 0078 0078     ......x.x.x.x.x.
 800572c:	0078 00f8 00f0 00f0 01f0 01e0 03c0 07c0     x...............
 800573c:	1f00 7e00 7800 0000 03e0 03c0 01c0 39ce     ...~.x.........9
 800574c:	3fff 3f7f 0320 0370 07f8 0f78 1f3c 0638     .?.? .p...x.<.8.
	...
 8005784:	01c0 01c0 01c0 01c0 01c0 01c0 01c0 ffff     ................
 8005794:	ffff 01c0 01c0 01c0 01c0 01c0 01c0 0000     ................
	...
 80057cc:	0000 03e0 03e0 03e0 03e0 01e0 01e0 01e0     ................
 80057dc:	01c0 0380 0000 0000 0000 0000 0000 0000     ................
	...
 80057f4:	0000 3ffe 3ffe 0000 0000 0000 0000 0000     ...?.?..........
	...
 8005834:	0000 03e0 03e0 03e0 03e0 0000 0000 0000     ................
 8005844:	0000 0000 000f 000f 001e 001e 003c 003c     ............<.<.
 8005854:	0078 0078 00f0 00f0 01e0 01e0 03c0 03c0     x.x.............
 8005864:	0780 0780 0f00 0f00 1e00 1e00 3c00 3c00     .............<.<
 8005874:	7800 7800 f000 0000 07f0 0ff8 1f7c 3e3e     .x.x........|.>>
 8005884:	3c1e 7c1f 7c1f 780f 780f 780f 780f 780f     .<.|.|.x.x.x.x.x
 8005894:	780f 780f 7c1f 7c1f 3c1e 3e3e 1f7c 0ff8     .x.x.|.|.<>>|...
 80058a4:	07f0 0000 0000 0000 0000 0000 00f0 07f0     ................
 80058b4:	3ff0 3ff0 01f0 01f0 01f0 01f0 01f0 01f0     .?.?............
 80058c4:	01f0 01f0 01f0 01f0 01f0 01f0 01f0 01f0     ................
 80058d4:	01f0 3fff 3fff 0000 0000 0000 0000 0000     ...?.?..........
 80058e4:	0fe0 3ff8 3c7c 003c 003e 003e 003e 003c     ...?|<<.>.>.>.<.
 80058f4:	003c 007c 00f8 01f0 03e0 07c0 0780 0f00     <.|.............
 8005904:	1e00 3e00 3c00 3ffe 3ffe 0000 0000 0000     ...>.<.?.?......
 8005914:	0000 0000 0ff0 1ff8 1c7c 003e 003e 003e     ........|.>.>.>.
 8005924:	003c 003c 00f8 0ff0 0ff8 007c 003e 001e     <.<.......|.>...
 8005934:	001e 001e 001e 003e 1c7c 1ff8 1fe0 0000     ......>.|.......
	...
 800594c:	0078 00f8 00f8 01f8 03f8 07f8 07f8 0f78     x.............x.
 800595c:	1e78 1e78 3c78 7878 7878 ffff ffff 0078     x.x.x<xxxx....x.
 800596c:	0078 0078 0078 0078 0078 0000 0000 0000     x.x.x.x.x.......
 800597c:	0000 0000 1ffc 1ffc 1ffc 1e00 1e00 1e00     ................
 800598c:	1e00 1e00 1fe0 1ff8 00fc 007c 003e 003e     ..........|.>.>.
 800599c:	001e 003e 003e 003c 1c7c 1ff8 1fe0 0000     ..>.>.<.|.......
	...
 80059b4:	01fc 07fe 0f8e 1f00 1e00 3e00 3c00 3c00     ...........>.<.<
 80059c4:	3df8 3ffc 7f3e 7e1f 3c0f 3c0f 3c0f 3c0f     .=.?>..~.<.<.<.<
 80059d4:	3e0f 1e1f 1f3e 0ffc 03f0 0000 0000 0000     .>..>...........
 80059e4:	0000 0000 3fff 3fff 3fff 000f 001e 001e     .....?.?.?......
 80059f4:	003c 0038 0078 00f0 00f0 01e0 01e0 03c0     <.8.x...........
 8005a04:	03c0 0780 0f80 0f80 0f00 1f00 1f00 0000     ................
	...
 8005a1c:	07f8 0ffc 1f3e 1e1e 3e1e 3e1e 1e1e 1f3c     ....>....>.>..<.
 8005a2c:	0ff8 07f0 0ff8 1efc 3e3e 3c1f 7c1f 7c0f     ........>>.<.|.|
 8005a3c:	7c0f 3c1f 3f3e 1ffc 07f0 0000 0000 0000     .|.<>?..........
 8005a4c:	0000 0000 07f0 0ff8 1e7c 3c3e 3c1e 7c1f     ........|.><.<.|
 8005a5c:	7c1f 7c1f 7c1f 3c1f 3e3f 1fff 07ef 001f     .|.|.|.<?>......
 8005a6c:	001e 001e 003e 003c 38f8 3ff0 1fe0 0000     ....>.<..8.?....
	...
 8005a90:	03e0 03e0 03e0 03e0 0000 0000 0000 0000     ................
 8005aa0:	0000 0000 0000 03e0 03e0 03e0 03e0 0000     ................
	...
 8005ac4:	03e0 03e0 03e0 03e0 0000 0000 0000 0000     ................
 8005ad4:	0000 0000 0000 03e0 03e0 03e0 03e0 01e0     ................
 8005ae4:	01e0 01e0 03c0 0380 0000 0000 0000 0000     ................
 8005af4:	0000 0000 0003 000f 003f 00fc 03f0 0fc0     ........?.......
 8005b04:	3f00 fe00 3f00 0fc0 03f0 00fc 003f 000f     .?...?......?...
 8005b14:	0003 0000 0000 0000 0000 0000 0000 0000     ................
	...
 8005b34:	ffff ffff 0000 0000 0000 ffff ffff 0000     ................
	...
 8005b60:	e000 f800 7e00 1f80 07e0 01f8 007e 001f     .....~......~...
 8005b70:	007e 01f8 07e0 1f80 7e00 f800 e000 0000     ~........~......
	...
 8005b88:	1ff0 3ffc 383e 381f 381f 001e 001e 003c     ...?>8.8.8....<.
 8005b98:	0078 00f0 01e0 03c0 03c0 07c0 07c0 0000     x...............
 8005ba8:	0000 0000 07c0 07c0 07c0 0000 0000 0000     ................
 8005bb8:	0000 0000 03f8 0ffe 1f1e 3e0f 3c7f 78ff     ...........>.<.x
 8005bc8:	79ef 73c7 f3c7 f38f f38f f38f f39f f39f     .y.s............
 8005bd8:	73ff 7bff 79f7 3c00 1f1c 0ffc 03f8 0000     .s.{.y.<........
	...
 8005bf4:	0000 03e0 03e0 07f0 07f0 07f0 0f78 0f78     ............x.x.
 8005c04:	0e7c 1e3c 1e3c 3c3e 3ffe 3fff 781f 780f     |.<.<.><.?.?.x.x
 8005c14:	f00f f007 f007 0000 0000 0000 0000 0000     ................
 8005c24:	0000 0000 0000 3ff8 3ffc 3c3e 3c1e 3c1e     .......?.?><.<.<
 8005c34:	3c1e 3c3e 3c7c 3ff0 3ff8 3c7e 3c1f 3c1f     .<><|<.?.?~<.<.<
 8005c44:	3c0f 3c0f 3c1f 3ffe 3ff8 0000 0000 0000     .<.<.<.?.?......
	...
 8005c5c:	0000 01ff 07ff 1f87 3e00 3c00 7c00 7800     .........>.<.|.x
 8005c6c:	7800 7800 7800 7800 7c00 7c00 3e00 3f00     .x.x.x.x.|.|.>.?
 8005c7c:	1f83 07ff 01ff 0000 0000 0000 0000 0000     ................
 8005c8c:	0000 0000 0000 7ff0 7ffc 787e 781f 781f     ..........~x.x.x
 8005c9c:	780f 780f 780f 780f 780f 780f 780f 780f     .x.x.x.x.x.x.x.x
 8005cac:	781f 781e 787e 7ff8 7fe0 0000 0000 0000     .x.x~x..........
	...
 8005cc4:	0000 3fff 3fff 3e00 3e00 3e00 3e00 3e00     ...?.?.>.>.>.>.>
 8005cd4:	3e00 3ffe 3ffe 3e00 3e00 3e00 3e00 3e00     .>.?.?.>.>.>.>.>
 8005ce4:	3e00 3fff 3fff 0000 0000 0000 0000 0000     .>.?.?..........
 8005cf4:	0000 0000 0000 1fff 1fff 1e00 1e00 1e00     ................
 8005d04:	1e00 1e00 1e00 1fff 1fff 1e00 1e00 1e00     ................
 8005d14:	1e00 1e00 1e00 1e00 1e00 0000 0000 0000     ................
	...
 8005d2c:	0000 03fe 0fff 1f87 3e00 7c00 7c00 7800     .........>.|.|.x
 8005d3c:	f800 f800 f87f f87f 780f 7c0f 7c0f 3e0f     .........x.|.|.>
 8005d4c:	1f8f 0fff 03fe 0000 0000 0000 0000 0000     ................
 8005d5c:	0000 0000 0000 7c1f 7c1f 7c1f 7c1f 7c1f     .......|.|.|.|.|
 8005d6c:	7c1f 7c1f 7c1f 7fff 7fff 7c1f 7c1f 7c1f     .|.|.|.....|.|.|
 8005d7c:	7c1f 7c1f 7c1f 7c1f 7c1f 0000 0000 0000     .|.|.|.|.|......
	...
 8005d94:	0000 3fff 3fff 03e0 03e0 03e0 03e0 03e0     ...?.?..........
 8005da4:	03e0 03e0 03e0 03e0 03e0 03e0 03e0 03e0     ................
 8005db4:	03e0 3fff 3fff 0000 0000 0000 0000 0000     ...?.?..........
 8005dc4:	0000 0000 0000 1ffc 1ffc 007c 007c 007c     ..........|.|.|.
 8005dd4:	007c 007c 007c 007c 007c 007c 007c 007c     |.|.|.|.|.|.|.|.
 8005de4:	0078 0078 38f8 3ff0 3fc0 0000 0000 0000     x.x..8.?.?......
	...
 8005dfc:	0000 3c1f 3c1e 3c3c 3c78 3cf0 3de0 3fe0     ...<.<<<x<.<.=.?
 8005e0c:	3fc0 3f80 3fc0 3fe0 3df0 3cf0 3c78 3c7c     .?.?.?.?.=.<x<|<
 8005e1c:	3c3e 3c1f 3c0f 0000 0000 0000 0000 0000     ><.<.<..........
 8005e2c:	0000 0000 0000 3e00 3e00 3e00 3e00 3e00     .......>.>.>.>.>
 8005e3c:	3e00 3e00 3e00 3e00 3e00 3e00 3e00 3e00     .>.>.>.>.>.>.>.>
 8005e4c:	3e00 3e00 3e00 3fff 3fff 0000 0000 0000     .>.>.>.?.?......
	...
 8005e64:	0000 f81f fc1f fc1f fe3f fe3f fe3f ff7f     ........?.?.?...
 8005e74:	ff77 ff77 f7f7 f7e7 f3e7 f3e7 f3c7 f007     w.w.............
 8005e84:	f007 f007 f007 0000 0000 0000 0000 0000     ................
 8005e94:	0000 0000 0000 7c0f 7c0f 7e0f 7f0f 7f0f     .......|.|.~....
 8005ea4:	7f8f 7f8f 7fcf 7bef 79ef 79ff 78ff 78ff     .......{.y.y.x.x
 8005eb4:	787f 783f 783f 781f 781f 0000 0000 0000     .x?x?x.x.x......
	...
 8005ecc:	0000 07f0 1ffc 3e3e 7c1f 780f 780f f80f     ......>>.|.x.x..
 8005edc:	f80f f80f f80f f80f f80f 780f 780f 7c1f     ...........x.x.|
 8005eec:	3e3e 1ffc 07f0 0000 0000 0000 0000 0000     >>..............
 8005efc:	0000 0000 0000 3ffc 3fff 3e1f 3e0f 3e0f     .......?.?.>.>.>
 8005f0c:	3e0f 3e0f 3e1f 3e3f 3ffc 3ff0 3e00 3e00     .>.>.>?>.?.?.>.>
 8005f1c:	3e00 3e00 3e00 3e00 3e00 0000 0000 0000     .>.>.>.>.>......
	...
 8005f34:	0000 07f0 1ffc 3e3e 7c1f 780f 780f f80f     ......>>.|.x.x..
 8005f44:	f80f f80f f80f f80f f80f 780f 780f 7c1f     ...........x.x.|
 8005f54:	3e3e 1ffc 07f8 007c 003f 000f 0003 0000     >>....|.?.......
 8005f64:	0000 0000 0000 3ff0 3ffc 3c7e 3c3e 3c1e     .......?.?~<><.<
 8005f74:	3c1e 3c3e 3c3c 3cfc 3ff0 3fe0 3df0 3cf8     .<><<<.<.?.?.=.<
 8005f84:	3c7c 3c3e 3c1e 3c1f 3c0f 0000 0000 0000     |<><.<.<.<......
	...
 8005f9c:	0000 07fc 1ffe 3e0e 3c00 3c00 3c00 3e00     .......>.<.<.<.>
 8005fac:	1fc0 0ff8 03fe 007f 001f 000f 000f 201f     ............... 
 8005fbc:	3c3e 3ffc 1ff0 0000 0000 0000 0000 0000     ><.?............
 8005fcc:	0000 0000 0000 ffff ffff 03e0 03e0 03e0     ................
 8005fdc:	03e0 03e0 03e0 03e0 03e0 03e0 03e0 03e0     ................
 8005fec:	03e0 03e0 03e0 03e0 03e0 0000 0000 0000     ................
	...
 8006004:	0000 7c0f 7c0f 7c0f 7c0f 7c0f 7c0f 7c0f     ...|.|.|.|.|.|.|
 8006014:	7c0f 7c0f 7c0f 7c0f 7c0f 7c0f 3c1e 3c1e     .|.|.|.|.|.|.<.<
 8006024:	3e3e 1ffc 07f0 0000 0000 0000 0000 0000     >>..............
 8006034:	0000 0000 0000 f007 f007 f807 780f 7c0f     .............x.|
 8006044:	3c1e 3c1e 3e1e 1e3c 1f3c 1f78 0f78 0ff8     .<.<.><.<.x.x...
 8006054:	07f0 07f0 07f0 03e0 03e0 0000 0000 0000     ................
	...
 800606c:	0000 e003 f003 f003 f007 f3e7 f3e7 f3e7     ................
 800607c:	73e7 7bf7 7ff7 7fff 7f7f 7f7f 7f7e 3f7e     .s.{........~.~?
 800608c:	3e3e 3e3e 3e3e 0000 0000 0000 0000 0000     >>>>>>..........
 800609c:	0000 0000 0000 f807 7c0f 3e1e 3e3e 1f3c     .........|.>>><.
 80060ac:	0ff8 07f0 07e0 03e0 03e0 07f0 0ff8 0f7c     ..............|.
 80060bc:	1e7c 3c3e 781f 780f f00f 0000 0000 0000     |.><.x.x........
	...
 80060d4:	0000 f807 7807 7c0f 3c1e 3e1e 1f3c 0f78     .....x.|.<.><.x.
 80060e4:	0ff8 07f0 03e0 03e0 03e0 03e0 03e0 03e0     ................
 80060f4:	03e0 03e0 03e0 0000 0000 0000 0000 0000     ................
 8006104:	0000 0000 0000 7fff 7fff 000f 001f 003e     ..............>.
 8006114:	007c 00f8 00f0 01e0 03e0 07c0 0f80 0f00     |...............
 8006124:	1e00 3e00 7c00 7fff 7fff 0000 0000 0000     ...>.|..........
 8006134:	0000 0000 07ff 0780 0780 0780 0780 0780     ................
 8006144:	0780 0780 0780 0780 0780 0780 0780 0780     ................
 8006154:	0780 0780 0780 0780 0780 0780 0780 0780     ................
 8006164:	0780 07ff 07ff 0000 7800 7800 3c00 3c00     .........x.x.<.<
 8006174:	1e00 1e00 0f00 0f00 0780 0780 03c0 03c0     ................
 8006184:	01e0 01e0 00f0 00f0 0078 0078 003c 003c     ........x.x.<.<.
 8006194:	001e 001e 000f 000f 0007 0000 7ff0 00f0     ................
 80061a4:	00f0 00f0 00f0 00f0 00f0 00f0 00f0 00f0     ................
 80061b4:	00f0 00f0 00f0 00f0 00f0 00f0 00f0 00f0     ................
 80061c4:	00f0 00f0 00f0 00f0 00f0 7ff0 7ff0 0000     ................
 80061d4:	00c0 01c0 01c0 03e0 03e0 07f0 07f0 0778     ..............x.
 80061e4:	0f78 0f38 1e3c 1e3c 3c1e 3c1e 380f 780f     x.8.<.<..<.<.8.x
 80061f4:	7807 0000 0000 0000 0000 0000 0000 0000     .x..............
	...
 8006230:	0000 ffff ffff 0000 0000 0000 00f0 0000     ................
	...
 800627c:	0ff8 3ffc 3c7c 003e 003e 003e 07fe 1ffe     ...?|<>.>.>.....
 800628c:	3e3e 7c3e 783e 7c3e 7c7e 3fff 1fcf 0000     >>>|>x>|~|.?....
	...
 80062a4:	3c00 3c00 3c00 3c00 3c00 3c00 3df8 3ffe     .<.<.<.<.<.<.=.?
 80062b4:	3f3e 3e1f 3c0f 3c0f 3c0f 3c0f 3c0f 3c0f     >?.>.<.<.<.<.<.<
 80062c4:	3c1f 3c1e 3f3e 3ffc 3bf0 0000 0000 0000     .<.<>?.?.;......
	...
 80062e4:	03fe 0fff 1f87 3e00 3e00 3c00 7c00 7c00     .......>.>.<.|.|
 80062f4:	7c00 3c00 3e00 3e00 1f87 0fff 03fe 0000     .|.<.>.>........
	...
 800630c:	001f 001f 001f 001f 001f 001f 07ff 1fff     ................
 800631c:	3e3f 3c1f 7c1f 7c1f 7c1f 781f 781f 7c1f     ?>.<.|.|.|.x.x.|
 800632c:	7c1f 3c3f 3e7f 1fff 0fdf 0000 0000 0000     .|?<.>..........
	...
 800634c:	03f8 0ffc 1f3e 3e1e 3c1f 7c1f 7fff 7fff     ....>..>.<.|....
 800635c:	7c00 7c00 3c00 3e00 1f07 0fff 03fe 0000     .|.|.<.>........
	...
 8006374:	01ff 03e1 03c0 07c0 07c0 07c0 7fff 7fff     ................
 8006384:	07c0 07c0 07c0 07c0 07c0 07c0 07c0 07c0     ................
 8006394:	07c0 07c0 07c0 07c0 07c0 0000 0000 0000     ................
	...
 80063b4:	07ef 1fff 3e7f 3c1f 7c1f 7c1f 781f 781f     .....>.<.|.|.x.x
 80063c4:	781f 7c1f 7c1f 3c3f 3e7f 1fff 0fdf 001e     .x.|.|?<.>......
 80063d4:	001e 001e 387c 3ff8 3c00 3c00 3c00 3c00     ....|8.?.<.<.<.<
 80063e4:	3c00 3c00 3dfc 3ffe 3f9e 3f1f 3e1f 3c1f     .<.<.=.?.?.?.>.<
 80063f4:	3c1f 3c1f 3c1f 3c1f 3c1f 3c1f 3c1f 3c1f     .<.<.<.<.<.<.<.<
 8006404:	3c1f 0000 0000 0000 0000 0000 01f0 01f0     .<..............
	...
 800641c:	7fe0 7fe0 01e0 01e0 01e0 01e0 01e0 01e0     ................
 800642c:	01e0 01e0 01e0 01e0 01e0 01e0 01e0 0000     ................
	...
 8006444:	00f8 00f8 0000 0000 0000 0000 3ff8 3ff8     .............?.?
 8006454:	00f8 00f8 00f8 00f8 00f8 00f8 00f8 00f8     ................
 8006464:	00f8 00f8 00f8 00f8 00f8 00f8 00f8 00f0     ................
 8006474:	71f0 7fe0 3c00 3c00 3c00 3c00 3c00 3c00     .q...<.<.<.<.<.<
 8006484:	3c1f 3c3e 3c7c 3cf8 3df0 3de0 3fc0 3fc0     .<><|<.<.=.=.?.?
 8006494:	3fe0 3df0 3cf8 3c7c 3c3e 3c1f 3c1f 0000     .?.=.<|<><.<.<..
	...
 80064ac:	7ff0 01f0 01f0 01f0 01f0 01f0 01f0 01f0     ................
 80064bc:	01f0 01f0 01f0 01f0 01f0 01f0 01f0 01f0     ................
 80064cc:	01f0 01f0 01f0 01f0 01f0 0000 0000 0000     ................
	...
 80064ec:	f79e ffff ffff ffff fbe7 f9e7 f1c7 f1c7     ................
 80064fc:	f1c7 f1c7 f1c7 f1c7 f1c7 f1c7 f1c7 0000     ................
	...
 8006520:	3dfc 3ffe 3f9e 3f1f 3e1f 3c1f 3c1f 3c1f     .=.?.?.?.>.<.<.<
 8006530:	3c1f 3c1f 3c1f 3c1f 3c1f 3c1f 3c1f 0000     .<.<.<.<.<.<.<..
	...
 8006554:	07f0 1ffc 3e3e 3c1f 7c1f 780f 780f 780f     ....>>.<.|.x.x.x
 8006564:	780f 780f 7c1f 3c1f 3e3e 1ffc 07f0 0000     .x.x.|.<>>......
	...
 8006588:	3df8 3ffe 3f3e 3e1f 3c0f 3c0f 3c0f 3c0f     .=.?>?.>.<.<.<.<
 8006598:	3c0f 3c0f 3c1f 3e1e 3f3e 3ffc 3ff8 3c00     .<.<.<.>>?.?.?.<
 80065a8:	3c00 3c00 3c00 3c00 0000 0000 0000 0000     .<.<.<.<........
 80065b8:	0000 0000 07ee 1ffe 3e7e 3c1e 7c1e 781e     ........~>.<.|.x
 80065c8:	781e 781e 781e 781e 7c1e 7c3e 3e7e 1ffe     .x.x.x.x.|>|~>..
 80065d8:	0fde 001e 001e 001e 001e 001e 0000 0000     ................
	...
 80065f0:	1f7f 1fff 1fe7 1fc7 1f87 1f00 1f00 1f00     ................
 8006600:	1f00 1f00 1f00 1f00 1f00 1f00 1f00 0000     ................
	...
 8006624:	07fc 1ffe 1e0e 3e00 3e00 3f00 1fe0 07fc     .......>.>.?....
 8006634:	00fe 003e 001e 001e 3c3e 3ffc 1ff0 0000     ..>.....><.?....
	...
 8006650:	0000 0780 0780 0780 7fff 7fff 0780 0780     ................
 8006660:	0780 0780 0780 0780 0780 0780 0780 0780     ................
 8006670:	07c0 03ff 01ff 0000 0000 0000 0000 0000     ................
	...
 800668c:	3c1e 3c1e 3c1e 3c1e 3c1e 3c1e 3c1e 3c1e     .<.<.<.<.<.<.<.<
 800669c:	3c1e 3c1e 3c3e 3c7e 3efe 1ffe 0fde 0000     .<.<><~<.>......
	...
 80066c0:	f007 780f 780f 3c1e 3c1e 3e1e 1e3c 1e3c     ...x.x.<.<.><.<.
 80066d0:	0f78 0f78 0ff0 07f0 07f0 03e0 03e0 0000     x.x.............
	...
 80066f4:	f003 f1e3 f3e3 f3e7 f3f7 f3f7 7ff7 7f77     ..............w.
 8006704:	7f7f 7f7f 7f7f 3e3e 3e3e 3e3e 3e3e 0000     ......>>>>>>>>..
	...
 8006728:	7c0f 3e1e 3e3c 1f3c 0ff8 07f0 07f0 03e0     .|.><><.........
 8006738:	07f0 07f8 0ff8 1e7c 3e3e 3c1f 781f 0000     ......|.>>.<.x..
	...
 800675c:	f807 780f 7c0f 3c1e 3c1e 1e3c 1e3c 1f3c     ...x.|.<.<<.<.<.
 800676c:	0f78 0ff8 07f0 07f0 03e0 03e0 03c0 03c0     x...............
 800677c:	03c0 0780 0f80 7f00 0000 0000 0000 0000     ................
 800678c:	0000 0000 3fff 3fff 001f 003e 007c 00f8     .....?.?..>.|...
 800679c:	01f0 03e0 07c0 0f80 1f00 1e00 3c00 7fff     .............<..
 80067ac:	7fff 0000 0000 0000 0000 0000 01fe 03e0     ................
 80067bc:	03c0 03c0 03c0 03c0 01e0 01e0 01e0 01c0     ................
 80067cc:	03c0 3f80 3f80 03c0 01c0 01e0 01e0 01e0     ...?.?..........
 80067dc:	03c0 03c0 03c0 03c0 03e0 01fe 007e 0000     ............~...
 80067ec:	01c0 01c0 01c0 01c0 01c0 01c0 01c0 01c0     ................
 80067fc:	01c0 01c0 01c0 01c0 01c0 01c0 01c0 01c0     ................
 800680c:	01c0 01c0 01c0 01c0 01c0 01c0 01c0 01c0     ................
 800681c:	01c0 0000 3fc0 03e0 01e0 01e0 01e0 01e0     .....?..........
 800682c:	01c0 03c0 03c0 01c0 01e0 00fe 00fe 01e0     ................
 800683c:	01c0 03c0 03c0 01c0 01e0 01e0 01e0 01e0     ................
 800684c:	03e0 3fc0 3f00 0000 0000 0000 0000 0000     ...?.?..........
	...
 8006868:	0000 3f07 7fc7 73e7 f1ff f07e 0000 0000     ...?...s..~.....
	...

08006888 <horse1>:
	...
 800695c:	f83f 0060 0000 0000 0000 0000 0000 1f00     ?.`.............
 800696c:	ffff 00f0 0000 0000 0000 0000 0000 7f00     ................
 800697c:	ffff 00c0 0000 0000 0000 0000 0000 ff05     ................
 800698c:	ffff 00e4 0000 0000 0000 0000 0000 ff0f     ................
 800699c:	ffff 0080 0000 0000 0000 0000 0000 000f     ................
 80069ac:	ff0f 0000 0000 0000 0000 0000 0000 0006     ................
 80069bc:	ff00 0080 0000 0000 0000 0000 0000 6018     ...............`
 80069cc:	1f00 00f8 0000 0000 0000 0000 0000 783c     ..............<x
 80069dc:	0700 0080 0000 0000 0000 0000 0000 6e30     ..............0n
	...
 80069f8:	0000 7350 0080 0000 0000 0000 0000 0000     ..Ps............
 8006a08:	0000 0080 00c0 ff05 3700 00f0 1f00 0080     .........7......
 8006a18:	0100 0000 00fc 0000 0700 80ff f003 0030     ..............0.
 8006a28:	0000 0008 0038 0000 0000 ffbf e0ff 0004     ....8...........
 8006a38:	0100 0090 0060 0000 0000 ff87 feff 0000     ....`...........
 8006a48:	0100 00e0 0060 0000 0000 ff01 ffff 00c0     ....`...........
 8006a58:	0000 0040 0660 0000 0000 1f00 00fc 0008     ..@.`...........
 8006a68:	0000 0000 06e0 0000 0010 0080 0000 0000     ................
 8006a78:	0000 0000 0660 0000 0130 0080 0000 0000     ....`...0.......
 8006a88:	0000 0000 0670 0000 0730 0000 0000 0000     ....p...0.......
 8006a98:	0000 0000 c67f 0000 0fe0 0000 0000 0000     ................
 8006aa8:	0000 0f00 cc81 1000 38e0 0000 0000 0000     .........8......
 8006ab8:	0000 0f00 08c0 0086 6000 0000 0000 0000     .........`......
 8006ac8:	0000 1f00 20f6 0000 c021 0000 0000 0000     ..... ..!.......
 8006ad8:	0000 1f00 00c0 0000 0000 0000 0000 0000     ................
 8006ae8:	0000 3e00 0000 0000 0104 0000 0000 0000     ...>............
 8006af8:	0000 f800 0000 0000 0048 0000 0000 0000     ........H.......
 8006b08:	0000 f001 0000 0000 0070 0000 0000 0000     ........p.......
 8006b18:	0000 2007 0000 0000 00f0 0078 0000 0000     ... ......x.....
 8006b28:	0000 383c 0000 0000 00f0 0078 0000 0000     ..<8......x.....
 8006b38:	0000 3078 0000 0100 00c0 0078 0000 0000     ..x0......x.....
 8006b48:	0100 00e0 0000 0300 0080 0070 0000 0000     ..........p.....
 8006b58:	0300 00c0 0000 0600 0000 0070 0000 0000     ..........p.....
 8006b68:	0000 0000 0000 1c00 0000 0030 0000 0000     ..........0.....
 8006b78:	0000 0000 0000 3c00 0000 0030 0000 0000     .......<..0.....
 8006b88:	0000 0000 0000 7800 0000 0070 0000 0000     .......x..p.....
 8006b98:	0000 0000 0000 e001 0000 00f0 0000 0000     ................
 8006ba8:	0000 0000 0000 c003 0300 00f0 0000 0000     ................
 8006bb8:	0000 0000 0000 0006 0700 0080 0000 0000     ................
	...

08006c88 <horse2>:
	...
 8006d5c:	f83f 0060 0000 0000 0000 0000 0000 1f00     ?.`.............
 8006d6c:	ffff 00f0 0000 0000 0000 0000 0000 7f00     ................
 8006d7c:	ffff 00c0 0000 0000 0000 0000 0000 ff05     ................
 8006d8c:	ffff 00e4 0000 0000 0000 0000 0000 ff0f     ................
 8006d9c:	ffff 0080 0000 0000 0000 0000 0000 000f     ................
 8006dac:	ff0f 0000 0000 0000 0000 0000 0000 0006     ................
 8006dbc:	ff00 0080 0000 0000 0000 0000 0000 6018     ...............`
 8006dcc:	1f00 00f8 0000 0000 0000 0000 0000 783c     ..............<x
 8006ddc:	0700 0080 0000 0000 0000 0000 0000 6e30     ..............0n
	...
 8006df8:	0000 7350 0080 0000 0000 0000 0000 0000     ..Ps............
 8006e08:	0000 0080 00c0 ff05 3700 00f0 1f00 0080     .........7......
 8006e18:	0100 0000 00fc 0000 0700 80ff f003 0030     ..............0.
 8006e28:	0000 0008 0038 0000 0000 ffbf e0ff 0004     ....8...........
 8006e38:	0100 0090 0060 0000 0000 ff87 feff 0000     ....`...........
 8006e48:	0100 00e0 0060 0000 0000 ff01 ffff 00c0     ....`...........
 8006e58:	0000 0040 0660 0000 0000 1f00 00fc 0008     ..@.`...........
 8006e68:	0000 0000 06e0 0000 0010 0080 0000 0000     ................
 8006e78:	0000 0000 0660 0000 0130 0080 0000 0000     ....`...0.......
 8006e88:	0000 0000 0670 0000 0730 0000 0000 0000     ....p...0.......
 8006e98:	0000 0000 c67f 0000 0fe0 0000 0000 0000     ................
 8006ea8:	0000 0f00 cc81 1000 38e0 0000 0000 0000     .........8......
 8006eb8:	0000 0f00 08c0 0086 6000 0000 0000 0000     .........`......
 8006ec8:	0000 1f00 20f6 0000 c021 0000 0000 0000     ..... ..!.......
 8006ed8:	0000 1f00 00c0 0000 0000 0000 0000 0000     ................
 8006ee8:	0000 3e00 0000 0000 0104 0000 0000 0000     ...>............
 8006ef8:	0000 f800 0000 0000 0048 0000 0000 0000     ........H.......
 8006f08:	0000 f001 0000 0000 0070 0000 0000 0000     ........p.......
 8006f18:	0000 2007 0000 0000 00f0 0078 0000 0000     ... ......x.....
 8006f28:	0000 383c 0000 0000 00f0 0078 0000 0000     ..<8......x.....
 8006f38:	0000 3078 0000 0100 00c0 0078 0000 0000     ..x0......x.....
 8006f48:	0100 00e0 0000 0300 0080 0070 0000 0000     ..........p.....
 8006f58:	0300 00c0 0000 0600 0000 0070 0000 0000     ..........p.....
 8006f68:	0000 0000 0000 1c00 0000 0030 0000 0000     ..........0.....
 8006f78:	0000 0000 0000 3c00 0000 0030 0000 0000     .......<..0.....
 8006f88:	0000 0000 0000 7800 0000 0070 0000 0000     .......x..p.....
 8006f98:	0000 0000 0000 e001 0000 00f0 0000 0000     ................
 8006fa8:	0000 0000 0000 c003 0300 00f0 0000 0000     ................
 8006fb8:	0000 0000 0000 0006 0700 0080 0000 0000     ................
	...

08007088 <horse3>:
	...
 800715c:	0600 0000 0000 0000 0000 0000 0000 0000     ................
 800716c:	ff0f 00b0 0000 0000 0000 0000 0000 7f00     ................
 800717c:	fcff 0000 0000 0000 0000 0000 0000 ff01     ................
 800718c:	f8ff c01f 0000 0000 0000 0000 0000 ff0f     ................
 800719c:	ffff 00f8 0000 0000 0000 0000 0000 e01f     ................
 80071ac:	ff1f 00c0 0000 0000 0000 0000 0000 831e     ................
 80071bc:	7f88 0080 0000 0000 0000 0000 0000 003c     ..............<.
 80071cc:	0f00 00f0 0000 0000 0000 0000 0000 faf8     ................
 80071dc:	0300 0087 0000 0000 0000 0000 0000 fef8     ................
 80071ec:	0000 00c0 0000 0000 0000 0000 0100 e7e0     ................
 80071fc:	0006 0030 0000 0000 0000 00ff 0100 0300     ..0.............
 800720c:	00ce 8007 f70f f0ff 0f00 00fc 0200 0002     ................
 800721c:	00dc 7f00 07c0 ffff fff1 0080 0400 0018     ................
 800722c:	0078 0000 0000 ffdf fcff 0000 0700 0040     x.............@.
 800723c:	0030 0000 0000 ff43 f0ff 0000 0300 00c0     0.....C.........
 800724c:	0020 0004 0018 3f60 80ff 0000 0100 0080      .....`?........
 800725c:	ff5f 00ff 7f18 03a0 00e0 0000 0000 0000     _...............
 800726c:	ef7f 80ff ff1c 00a0 0000 0000 0000 0000     ................
 800727c:	1c60 0000 000c 0060 0000 0000 0000 0000     `.....`.........
 800728c:	183f 0000 000e 00e0 0000 0000 0000 3f00     ?..............?
 800729c:	38c0 0000 0106 00e0 0000 0000 0000 7800     .8.............x
 80072ac:	3c00 0500 21fe 00a0 0000 0000 0000 e300     .<...!..........
 80072bc:	a3fc f0e7 ff1f 00d0 0000 0000 0000 8001     ................
 80072cc:	803f 0018 8301 0008 0000 0000 0000 0003     ?...............
 80072dc:	0042 0000 c300 0006 0000 0000 0000 000f     B...............
 80072ec:	00c4 0000 2300 f0fc 0000 0000 0000 001e     .....#..........
 80072fc:	0090 0000 1100 f003 0000 0000 0000 011c     ................
 800730c:	0020 0000 0d00 f800 0000 0000 0000 017c      .............|.
 800731c:	0080 0000 0700 3880 0000 0000 0000 0370     .......8......p.
 800732c:	0080 0000 0700 18c0 0000 0000 0000 0700     ................
 800733c:	0000 0000 0700 0cc0 0000 0000 0000 0e00     ................
 800734c:	0000 0000 0700 0cc0 0000 0000 0000 1c00     ................
 800735c:	0000 0000 0700 0e80 0000 0000 0000 3800     ...............8
 800736c:	0000 0000 0700 0e00 0000 0000 0000 7000     ...............p
 800737c:	0000 0000 0e00 0e00 0000 0000 0000 e001     ................
 800738c:	0000 0000 1e00 0e00 0000 0000 0000 8007     ................
 800739c:	0000 0000 3c00 1e00 0000 0000 0000 0000     .....<..........
 80073ac:	0000 0000 fc01 3e00 0000 0000 0000 0000     .......>........
 80073bc:	0000 0000 800f 3800 0000 0000 0000 0000     .......8........
 80073cc:	0000 0000 001f 0000 0000 0000 0000 0000     ................
	...

08007488 <horse4>:
	...
 8007578:	0000 7f00 1df0 00c0 0000 0000 0000 0000     ................
 8007588:	0000 ff1f ffff 0000 0000 0000 0000 0000     ................
 8007598:	0000 ff1f ffff 00f0 0000 0000 0000 0000     ................
 80075a8:	0000 801f ff3f c0ff 0000 0000 0000 0000     ....?...........
 80075b8:	0000 831e ff88 00e0 0000 0000 0000 0000     ................
 80075c8:	0000 c078 1f00 00f8 0000 0000 0000 0000     ..x.............
 80075d8:	0000 e2f1 0300 00e6 0000 0000 0000 0000     ................
 80075e8:	0100 f8f1 0000 0060 0000 0000 0000 0000     ......`.........
 80075f8:	0300 8f41 000c 0018 0000 0000 0000 0000     ..A.............
 8007608:	0600 0300 008c 8007 0100 ffff 0080 0008     ................
 8007618:	0c00 0002 00f8 0f00 3fc0 ffff 18f0 0030     .........?....0.
 8007628:	0e00 0040 0030 0000 0000 ffff e1ff 00c0     ..@.0...........
 8007638:	0f00 0080 0030 0000 0000 ff3f ffff 4000     ....0.....?....@
 8007648:	0700 0080 0020 0004 0000 3f10 feff 001e     .... ......?....
 8007658:	0000 0000 fd5f 00ff 7f00 00f0 ffff 00e0     ...._...........
 8007668:	0000 0000 ef7f 80ff ff00 00f0 0000 0000     ................
 8007678:	0000 0000 1c40 0000 0000 0010 0000 0000     ....@...........
 8007688:	0000 0000 1870 0000 8001 0018 0000 0000     ....p...........
 8007698:	0000 0000 3060 0000 8001 0018 0000 0000     ....`0..........
 80076a8:	0000 0100 7e80 0000 c0f1 001c 0000 0000     .....~..........
 80076b8:	0000 0700 fdff fef5 ff0f 00ee 0000 0000     ................
 80076c8:	0000 2800 e8fb 000e 1000 800f 0000 0000     ...(............
 80076d8:	0000 7e00 0801 0000 0c00 0e07 0000 0000     ...~............
 80076e8:	0000 e001 1001 0000 0300 ff03 0000 0000     ................
 80076f8:	0000 0007 1001 0000 0000 cf41 0000 0000     ..........A.....
 8007708:	0000 003c 9001 0000 0000 e311 0080 0000     ..<.............
 8007718:	0100 00f8 a000 0000 0000 e107 00c0 0000     ................
 8007728:	0700 00e0 e000 0000 0000 e003 00e0 0000     ................
 8007738:	1f00 0000 e000 0000 0000 e001 0070 0000     ............p...
 8007748:	0000 0000 e000 0000 0000 e000 003c 0000     ............<...
 8007758:	0000 0000 c000 0000 0000 e000 c00f 0000     ................
 8007768:	0000 0000 c000 0000 0000 e000 e007 0000     ................
 8007778:	0000 0000 8000 0000 0000 7000 e000 0000     ...........p....
 8007788:	0000 0000 8001 0000 0000 7000 0000 0000     ...........p....
 8007798:	0000 0000 8001 0000 0000 7800 0000 0000     ...........x....
 80077a8:	0000 0000 8003 0000 0000 c003 0000 0000     ................
 80077b8:	0000 0000 001f 0000 0000 000f 0000 0000     ................
 80077c8:	0000 0000 003e 0000 0000 001f 0000 0000     ....>...........
	...

08007888 <horse5>:
	...
 8007978:	0000 ff03 00f0 0000 0000 0000 0000 0000     ................
 8007988:	0000 ff0f 80ff 0000 0000 0000 0000 0000     ................
 8007998:	0000 ff1f ffff 00f0 0000 0000 0000 0000     ................
 80079a8:	0000 ff1f ffff 00f0 0000 0000 0000 0000     ................
 80079b8:	0000 381e ff3f 00fe 0000 0000 0000 0000     ...8?...........
 80079c8:	0000 0070 ff00 8088 0000 0000 0000 0000     ..p.............
 80079d8:	0000 e0f1 5f0c 00c0 0000 0000 0000 0000     ....._..........
 80079e8:	0100 f0f1 4b1c 0080 0000 0000 0000 0000     .....K..........
 80079f8:	0300 bc81 000c 0040 0000 0000 0000 0000     ......@.........
 8007a08:	0000 3f02 0200 0018 801f 0700 00f8 0000     ...?............
 8007a18:	1800 0718 00d8 0001 0110 ffff 80ff 0000     ................
 8007a28:	1c00 0000 00f8 0800 0010 ff27 e0ff 0000     ..........'.....
 8007a38:	1f00 0000 4a74 2810 8814 7f00 fcff 0000     ....tJ.(........
 8007a48:	0600 0000 0020 0000 0000 1810 ffff 00f0     .... ...........
 8007a58:	0000 0000 0028 0000 0000 0010 0700 00f0     ....(...........
 8007a68:	0000 0000 5848 0800 0016 0010 0000 0000     ....HX..........
 8007a78:	0000 0000 5b4c 1c08 9036 0010 0000 0000     ....L[..6.......
 8007a88:	0000 0000 724c 1809 9017 0000 0000 0000     ....Lr..........
 8007a98:	0000 0000 307c 0800 0003 0000 0000 0000     ....|0..........
 8007aa8:	0000 0000 3078 0300 801f 0003 0000 0000     ....x0..........
 8007ab8:	0000 0000 3e4c c000 4000 1800 0000 0000     ....L>...@......
 8007ac8:	0000 0000 ff80 00c0 0f00 1c80 0000 0000     ................
 8007ad8:	0000 0100 100b 0080 0000 bc03 0000 0000     ................
 8007ae8:	0000 0100 0804 0040 0000 3e00 0000 0000     ......@....>....
 8007af8:	0000 0200 0010 0040 0000 1e00 0000 0000     ......@.........
 8007b08:	0000 0400 0240 0020 0000 0f00 0000 0000     ....@. .........
 8007b18:	0000 0900 0100 0020 0000 0f00 0080 0000     ...... .........
 8007b28:	0000 1e00 0000 0090 0000 0700 00c0 0000     ................
 8007b38:	0000 3c00 0000 0078 0000 0700 00f0 0000     ...<..x.........
 8007b48:	0000 7000 0000 0038 0000 0700 00fc 0000     ...p..8.........
 8007b58:	0000 c000 0000 0038 0000 0700 00fe 0000     ......8.........
 8007b68:	0000 8007 0000 0018 0000 0700 0080 0000     ................
 8007b78:	0000 000f 0000 000c 0000 0100 00c0 0000     ................
 8007b88:	0000 0078 0000 000e 0000 0000 00f0 0000     ..x.............
 8007b98:	0000 00f8 0000 0007 0000 0000 00f0 0000     ................
 8007ba8:	0000 0000 0000 000f 0000 0000 0030 0000     ............0...
 8007bb8:	0000 0000 0000 003e 0000 0000 0000 0000     ......>.........
 8007bc8:	0000 0000 0000 007c 0000 0000 0000 0000     ......|.........
	...

08007c88 <horse6>:
	...
 8007d68:	0000 7c00 0000 0000 0000 0000 0000 0000     ...|............
 8007d78:	0000 ff01 0080 0000 0000 0000 0000 0000     ................
 8007d88:	0000 ff03 00f8 0000 0000 0000 0000 0000     ................
 8007d98:	0000 ff07 feff 0000 0000 0000 0000 0000     ................
 8007da8:	0000 800f ffff c0c7 0000 0000 0000 0000     ................
 8007db8:	0000 833e ff87 00fc 0000 0000 0000 0000     ..>.............
 8007dc8:	0000 e07c ff00 00f8 0000 0000 0000 0000     ..|.............
 8007dd8:	0000 f2fc 1f00 00c2 0000 0000 0000 0000     ................
 8007de8:	0100 f880 0300 00e0 0000 0000 0000 0000     ................
 8007df8:	0200 9e00 0000 00e0 0000 0000 0000 0000     ................
 8007e08:	0c00 0f03 0080 011c 0f80 ffff f8ff 0000     ................
 8007e18:	0600 03b0 00c0 7000 0000 ffff ffff 0000     .......p........
 8007e28:	0700 0080 00ec 0000 0000 ff47 ffff 00c0     ..........G.....
 8007e38:	0300 0000 007c 0000 0000 ff41 f0ff 0060     ....|.....A...`.
 8007e48:	0000 0000 0038 0004 0000 3f40 feff 0018     ....8.....@?....
 8007e58:	0000 0000 fb1f 00ff 7f1c 0040 00f8 00c4     ..........@.....
 8007e68:	0000 0000 fd3f 80ff ff0c 00c0 0000 0000     ....?...........
 8007e78:	0000 0000 0c20 0000 0006 0040 0000 0000     .... .....@.....
 8007e88:	0000 0000 0c10 0000 0003 0020 0000 0000     .......... .....
 8007e98:	0000 0000 0c18 0000 000f 0030 0000 0000     ..........0.....
 8007ea8:	0000 0000 0c0e 0100 c0fc f007 0000 0000     ................
 8007eb8:	0000 0000 fd07 9cff 3f00 f0ff 0000 0000     .........?......
 8007ec8:	0000 0000 0f04 c0a7 0000 f807 0000 0000     ................
 8007ed8:	0000 0000 1b04 00f8 0000 3806 0000 0000     ...........8....
 8007ee8:	0000 0000 3402 0008 0000 1c06 0000 0000     .....4..........
 8007ef8:	0000 0000 2302 0004 0000 0e07 0000 0000     .....#..........
 8007f08:	0000 0000 2002 00c2 0000 0707 0000 0000     ..... ..........
 8007f18:	0000 0000 4002 0032 0000 0307 00c0 0000     .....@2.........
 8007f28:	0000 0000 4002 800d 0000 8303 00e0 0000     .....@..........
 8007f38:	0000 0000 c003 c003 0000 f800 007f 0000     ................
 8007f48:	0000 0000 c003 e001 0000 3c00 000f 0000     ...........<....
 8007f58:	0000 0000 8003 3800 0000 0000 0000 0000     .......8........
 8007f68:	0000 0000 0003 0f00 0000 0000 0000 0000     ................
 8007f78:	0000 0000 0003 0700 0080 0000 0000 0000     ................
 8007f88:	0000 0000 0007 0100 00c0 0000 0000 0000     ................
 8007f98:	0000 0000 0006 0000 00e0 0000 0000 0000     ................
 8007fa8:	0000 0000 003e 0000 00e0 0000 0000 0000     ....>...........
 8007fb8:	0000 0000 00f8 0000 0020 0000 0000 0000     ........ .......
	...

08008088 <horse7>:
	...
 8008168:	0000 ff00 00c0 0000 0000 0000 0000 0000     ................
 8008178:	0000 ff01 00f8 0000 0000 0000 0000 0000     ................
 8008188:	0000 ff03 00fe 0000 0000 0000 0000 0000     ................
 8008198:	0000 ff07 80ff 0000 0000 0000 0000 0000     ................
 80081a8:	0000 8307 e0ff 0007 0000 0000 0000 0000     ................
 80081b8:	0000 831e fc9f 000e 0000 0000 0000 0000     ................
 80081c8:	0000 303e ff03 00fc 0000 0000 0000 0000     ..>0............
 80081d8:	0000 be7c 3f00 00f0 0000 0000 0000 0000     ..|..?..........
 80081e8:	0000 3e80 0700 00fc 0000 0000 0000 0000     ...>............
 80081f8:	0100 0f00 0000 00e0 f0f1 e01f 0000 0000     ................
 8008208:	0200 0303 0000 0620 0f00 fcff 0000 0000     ...... .........
 8008218:	0300 0180 0080 e007 0100 ffcf ffff 00c0     ................
 8008228:	0300 00c0 00c0 0000 0000 ff81 ffff 00f8     ................
 8008238:	0000 0080 0060 0000 0030 7f80 ffff 003e     ....`...0.....>.
 8008248:	0000 0000 0060 0004 0030 1f80 ffff 0081     ....`...0.......
 8008258:	0000 0000 ff3f 00ff 7f38 0780 00fe 0020     ....?...8..... .
 8008268:	0000 0000 ff1f 80bf fe18 0080 0000 0000     ................
 8008278:	0000 0000 010c 00c0 0118 0000 0000 0000     ................
 8008288:	0000 0000 0004 00c0 0e18 0000 0000 0000     ................
 8008298:	0000 0000 0004 00e0 035e 00ff 0000 0000     ........^.......
 80082a8:	0000 0000 0004 0360 e000 00ff 0000 0000     ......`.........
 80082b8:	0000 0000 ff03 987f 0f00 80e7 0000 0000     ................
 80082c8:	0000 0000 c000 c07f 0100 80c3 0000 0000     ................
 80082d8:	0000 0000 2000 0070 0100 c0c1 0000 0000     ..... p.........
 80082e8:	0000 0000 1000 0070 0300 e080 0000 0000     ......p.........
 80082f8:	0000 0000 0800 0068 0300 7000 0000 0000     ......h....p....
 8008308:	0000 0000 0400 0068 0700 7000 0000 0000     ......h....p....
 8008318:	0000 0000 0200 0038 0600 7c00 0000 0000     ......8....|....
 8008328:	0000 0000 0100 00f8 0700 3e00 0000 0000     ...........>....
 8008338:	0000 0000 0000 04fe 0700 0600 0000 0000     ................
 8008348:	0000 0000 0000 ffff 07f0 0000 0000 0000     ................
 8008358:	0000 0000 0000 1f70 03e0 0000 0000 0000     ......p.........
 8008368:	0000 0000 0000 0030 0000 0000 0000 0000     ......0.........
 8008378:	0000 0000 0000 0018 0000 0000 0000 0000     ................
 8008388:	0000 0000 0000 000c 0000 0000 0000 0000     ................
 8008398:	0000 0000 0000 000e 0000 0000 0000 0000     ................
 80083a8:	0000 0000 0000 001c 0000 0000 0000 0000     ................
 80083b8:	0000 0000 0000 00f0 0000 0000 0000 0000     ................
 80083c8:	0000 0000 0100 00f0 0000 0000 0000 0000     ................
	...

08008488 <horse8>:
	...
 800855c:	007e 0000 0000 0000 0000 0000 0000 ff00     ~...............
 800856c:	80ff 0000 0000 0000 0000 0000 0000 ff03     ................
 800857c:	e0ff 0000 0000 0000 0000 0000 0000 ff03     ................
 800858c:	f0ff 0000 0000 0000 0000 0000 0000 b903     ................
 800859c:	f8ff 0000 0000 0000 0000 0000 0000 0007     ................
 80085ac:	fc3f 0000 0000 0000 0000 0000 0000 381f     ?..............8
 80085bc:	fe17 0000 0000 0000 0000 0000 0000 381e     ...............8
 80085cc:	ff01 0000 0000 f807 0000 0000 0000 1c3c     ..............<.
 80085dc:	7f0c 80c0 0000 fe1f 0000 0000 0000 3e20     .............. >
 80085ec:	4f1c 00fe 0000 ff3f 0000 0000 0000 4f80     .O....?........O
 80085fc:	010c 00f8 007f ffff 0080 0000 0100 0784     ................
 800860c:	0200 0438 1f00 ffff 00c0 0000 0000 03f0     ..8.............
 800861c:	008c c803 0310 ff03 00e0 0030 0000 00f0     ..........0.....
 800862c:	00c8 0800 0010 ff00 1ff8 00f0 0000 0000     ................
 800863c:	4a6c 2810 8814 7f00 ffff 0000 0000 0000     lJ.(............
 800864c:	0030 0000 0040 1f00 ffff 0080 0000 0000     0...@...........
 800865c:	0018 0000 0060 0700 e0ff 0000 0000 0000     ....`...........
 800866c:	4008 0800 12d0 0000 00fe 0000 0000 0000     .@..............
 800867c:	4b0c 1c08 98d0 0000 0000 0000 0000 0000     .K..............
 800868c:	420c 1831 98d0 0000 0000 0000 0000 0000     .B1.............
 800869c:	000c 0830 028c 0000 0000 0000 0000 0000     ..0.............
 80086ac:	000c 0830 f807 00f8 0000 0000 0000 0000     ..0.............
 80086bc:	0007 2038 7f00 00f0 0000 0000 0000 0000     ..8 ............
 80086cc:	e001 001f 3f00 00e0 0000 0000 0000 0000     .....?..........
 80086dc:	7800 0010 3f00 00c0 0000 0000 0000 0000     .x...?..........
 80086ec:	5c00 0010 7900 00c0 0000 0000 0000 0000     .\...y..........
 80086fc:	0700 0008 e101 0080 0000 0000 0000 0000     ................
 800870c:	4400 0008 8307 0000 0000 0000 0000 0000     .D..............
 800871c:	2400 f048 070e 0000 0000 0000 0000 0000     .$H.............
 800872c:	2400 e009 071c 0000 0000 0000 0000 0000     .$..............
 800873c:	3c00 802f 0738 0000 0000 0000 0000 0000     .</.8...........
 800874c:	3f00 00de 0338 00c0 0000 0000 0000 0000     .?..8...........
 800875c:	0e00 0007 0330 00c0 0000 0000 0000 0000     ....0...........
 800876c:	0000 f000 0100 0080 0000 0000 0000 0000     ................
 800877c:	0000 3e00 0000 0000 0000 0000 0000 0000     ...>............
 800878c:	0000 0e00 0000 0000 0000 0000 0000 0000     ................
 800879c:	0000 0700 0080 0000 0000 0000 0000 0000     ................
 80087ac:	0000 0300 0080 0000 0000 0000 0000 0000     ................
 80087bc:	0000 0300 0080 0000 0000 0000 0000 0000     ................
 80087cc:	0000 0200 0000 0000 0000 0000 0000 0000     ................
	...

08008888 <horse9>:
	...
 800894c:	f801 0000 0000 0000 0000 0000 0000 0100     ................
 800895c:	ffbf 0000 0000 0000 0000 0000 0000 df00     ................
 800896c:	ffff 00c0 0000 0000 0000 0000 0000 ff01     ................
 800897c:	ffff 00e0 0000 0000 0000 0000 0000 ff01     ................
 800898c:	ffff 00e0 0000 0000 0000 0000 0000 c101     ................
 800899c:	ffff 00f0 0000 0000 0000 0000 0000 2003     ............... 
 80089ac:	fe1f 00f0 0000 0000 0000 0000 0000 b80f     ................
 80089bc:	fe1f 0010 0000 0000 0000 0000 0000 1c0f     ................
 80089cc:	ff00 00c8 0000 0000 0000 0000 0000 2e16     ................
 80089dc:	7f0c 00f0 0000 fc0f 0000 0000 0000 3f30     ..............0?
 80089ec:	4f1c 0000 0000 fe3f 0000 0000 0000 2760     .O....?.......`'
 80089fc:	000c 0040 0161 ffff 0000 0000 0000 03c7     ..@.a...........
 8008a0c:	0280 0418 3f00 ffff 0080 0000 0000 017c     .....?........|.
 8008a1c:	00cc e803 0f10 ff81 00c0 0000 0000 007c     ..............|.
 8008a2c:	00c8 0800 0210 7f00 00f0 0000 0000 0000     ................
 8008a3c:	4a6c 2810 88d4 1f00 00ff 0000 0000 0000     lJ.(............
 8008a4c:	0020 0000 00c0 0f00 f0ff 0000 0000 0000      ...............
 8008a5c:	003c 0100 0280 0300 ffff 00fe 0000 0000     <...............
 8008a6c:	401c 0900 0010 0000 ff07 00e0 0000 0000     .@..............
 8008a7c:	4b1c 1f08 f0b0 0000 0000 0000 0000 0000     .K..............
 8008a8c:	421c 1931 f090 0000 0000 0000 0000 0000     .B1.............
 8008a9c:	002c 0830 00fc 0000 0000 0000 0000 0000     ,.0.............
 8008aac:	001e 0838 33fc 00c0 0000 0000 0000 0000     ..8..3..........
 8008abc:	0c0f 0018 0f74 00e0 0000 0000 0000 0000     ....t...........
 8008acc:	fc0d 0018 0f04 0080 0000 0000 0000 0000     ................
 8008adc:	7818 0010 1f12 0000 0000 0000 0000 0000     .x..............
 8008aec:	8441 0020 7c0f 0000 0000 0000 0000 0300     A. ..|..........
 8008afc:	04c0 0020 f00f 0000 0000 0000 0000 0100     .. .............
 8008b0c:	0080 0020 803f 0000 0000 0000 0000 0000     .. .?...........
 8008b1c:	03c0 0140 00ff 0000 0000 0000 0000 0000     ..@.............
 8008b2c:	0270 0f40 000e 0000 0000 0000 0000 0000     p.@.............
 8008b3c:	813c 1ec0 000e 0000 0000 0000 0000 0000     <...............
 8008b4c:	f10f 1cc0 000e 0000 0000 0000 0000 0000     ................
 8008b5c:	0100 f8ff 0000 0000 0000 0000 0000 0000     ................
 8008b6c:	0000 8003 0000 0000 0000 0000 0000 0000     ................
	...

08008c88 <horse10>:
	...
 8008d5c:	7f20 00e0 0000 0000 0000 0000 0000 3f00      ..............?
 8008d6c:	ffe7 00ec 0000 0000 0000 0000 0000 ff01     ................
 8008d7c:	f8ff 0000 0000 0000 0000 0000 0000 ff01     ................
 8008d8c:	f9ff 00c0 0000 0000 0000 0000 0000 fb01     ................
 8008d9c:	ffff 00f8 0000 0000 0000 0000 0000 c201     ................
 8008dac:	ff1f 00fe 0000 0000 0000 0000 0000 df03     ................
 8008dbc:	ff8b 00e1 0000 0000 0000 0000 0000 8e0f     ................
 8008dcc:	ff00 00f8 0000 0000 0000 0000 0000 8f0f     ................
 8008ddc:	1f00 00c0 0000 0000 0000 0000 0000 0f1e     ................
 8008dec:	0300 0000 0000 1f03 00f0 0000 0000 8310     ................
 8008dfc:	0080 03c0 e080 ff1f 80ff 0000 0000 2120     .............. !
 8008e0c:	00c0 783c 1f00 ffff e0ff 0000 0000 8041     ..<x..........A.
 8008e1c:	00e0 0000 0700 ffff f8ff 0000 0000 0074     ..............t.
 8008e2c:	0060 0000 02c0 0100 feff 0000 0000 003c     `.............<.
 8008e3c:	0030 0000 02c0 0000 ff0f 0000 0000 0018     0...............
 8008e4c:	0010 0004 02c0 0000 ff01 00f0 0000 0000     ................
 8008e5c:	ff1f 01ff 7e80 0000 3f00 00e0 0000 0000     .....~...?......
 8008e6c:	fe3f 81ff fe80 0000 0300 00f8 0000 0000     ?...............
 8008e7c:	0046 01c0 0c80 0000 0000 0000 0000 0000     F...............
 8008e8c:	0046 01c0 30c0 0000 0000 0000 0000 0000     F....0..........
 8008e9c:	0066 03c0 80c1 0000 0000 0000 0000 0100     f...............
 8008eac:	18f6 0d60 00f1 0000 0000 0000 0000 3e00     ..`............>
 8008ebc:	ffff 7067 00b9 0000 0000 0000 0000 1f00     ..gp............
 8008ecc:	e0cf 806f 8059 0000 0000 0000 0000 1800     ..o.Y...........
 8008edc:	c01f 0080 805f 0000 0000 0000 0000 1800     ...._...........
 8008eec:	c300 0000 c07f 0000 0000 0000 0000 0c00     ................
 8008efc:	8c00 0000 c0ff 0000 0000 0000 0000 0e00     ................
 8008f0c:	e003 1f00 00fc 0000 0000 0000 0000 0f00     ................
 8008f1c:	80e3 3e00 00fc 0000 0000 0000 0000 0300     ...>............
 8008f2c:	c1e3 7030 0070 0000 0000 0000 0000 0000     ..0pp...........
 8008f3c:	3f20 e0fc 00e0 0000 0000 0000 0000 0000      ?..............
 8008f4c:	0300 e180 0080 0000 0000 0000 0000 0000     ................
 8008f5c:	0000 8700 0000 0000 0000 0000 0000 0000     ................
 8008f6c:	0000 1e00 0000 0000 0000 0000 0000 0000     ................
 8008f7c:	0000 7c00 0000 0000 0000 0000 0000 0000     ...|............
 8008f8c:	0000 e000 0000 0000 0000 0000 0000 0000     ................
 8008f9c:	0000 c003 0000 0000 0000 0000 0000 0000     ................
	...
 8009088:	4c57 444f 4b45 0000 6554 7473 002e 0000     WLODEK..Test....
 8009098:	6548 6c6c 206f 6f77 6c72 2164 0a0d 0000     Hello world!....
 80090a8:	6548 6c6c 206f 6f77 6c72 2064 3232 3232     Hello world 2222
 80090b8:	0d21 000a                                   !...

080090bc <AHBPrescTable>:
	...
 80090c4:	0201 0403 0706 0908                         ........

080090cc <APBPrescTable>:
 80090cc:	0000 0000 0201 0403                         ........

080090d4 <_init>:
 80090d4:	b5f8      	push	{r3, r4, r5, r6, r7, lr}
 80090d6:	bf00      	nop
 80090d8:	bcf8      	pop	{r3, r4, r5, r6, r7}
 80090da:	bc08      	pop	{r3}
 80090dc:	469e      	mov	lr, r3
 80090de:	4770      	bx	lr

080090e0 <_fini>:
 80090e0:	b5f8      	push	{r3, r4, r5, r6, r7, lr}
 80090e2:	bf00      	nop
 80090e4:	bcf8      	pop	{r3, r4, r5, r6, r7}
 80090e6:	bc08      	pop	{r3}
 80090e8:	469e      	mov	lr, r3
 80090ea:	4770      	bx	lr
